Certificate Request:
    Data:
        Version: 0 (0x0)
        Subject: CN=Libopeay test cert 1, O=Opera, ST=Oslo, C=NO
        Subject Public Key Info:
            Public Key Algorithm: rsaEncryption
                Public-Key: (2048 bit)
                Modulus:
                    00:bf:01:ea:4f:45:41:1e:96:83:5d:42:4a:a2:2b:
                    70:16:f8:db:79:ec:66:07:45:4a:8a:85:d0:2b:c1:
                    f0:6e:87:d9:e1:ad:1f:ea:9c:8b:0d:5c:3f:6f:9c:
                    cb:8c:b3:88:1a:c1:10:0d:5f:53:0d:92:fc:72:30:
                    2b:46:3e:05:8f:d1:7a:d9:5e:f6:d4:a8:3a:20:ca:
                    c8:2c:ec:b4:8d:c5:91:0e:b3:b4:99:ad:0e:5c:43:
                    75:c2:00:8d:b8:e9:11:54:71:60:e4:71:19:56:6d:
                    cb:73:ca:a4:3d:3c:ef:de:08:0e:90:1b:2f:a4:8a:
                    81:81:fd:ca:50:17:a0:a6:5c:a8:83:6c:36:54:a9:
                    0f:f3:f1:ba:b1:fd:aa:92:07:2e:66:4e:51:4a:bb:
                    fe:5c:cf:92:0d:ef:28:e0:95:12:fe:af:5f:fc:9a:
                    3d:24:43:52:0f:41:15:99:9e:84:fc:fd:77:6f:2b:
                    97:54:7e:cd:ba:e7:21:0f:52:2e:89:5b:83:9d:0d:
                    36:2b:c2:62:32:ae:de:02:f2:ff:9e:d5:35:ad:b8:
                    77:8d:06:cf:1e:ee:cd:c0:54:7a:3d:aa:ed:82:d1:
                    64:df:7d:87:df:8f:cf:9d:cc:fd:d7:58:b6:af:87:
                    03:19:0b:c5:21:f1:c8:83:72:bc:a3:fd:83:b8:ab:
                    a5:d7
                Exponent: 65537 (0x10001)
        Attributes:
            a0:00
    Signature Algorithm: sha1WithRSAEncryption
        a6:85:15:08:62:c8:c5:90:86:d9:95:40:5e:91:c5:13:15:b6:
        2a:27:b2:07:17:d3:a9:56:57:b8:9f:19:f4:3b:8b:7b:66:c5:
        a2:99:b6:27:54:cf:f6:89:67:a6:e0:e9:b5:d2:94:b3:47:ae:
        e2:35:39:22:f2:d2:e0:1f:98:02:e0:79:5c:4a:3a:9d:94:c6:
        b0:32:5a:36:05:44:c5:f5:22:f8:1f:af:ba:70:be:58:80:78:
        a0:52:b5:de:f0:cd:38:13:d5:6a:e9:84:9f:5e:36:95:3a:33:
        1d:b1:06:e9:6d:cc:2d:a2:a8:ff:ba:c5:a2:ca:81:83:a2:e2:
        cd:ff:22:04:bb:5b:4f:78:0f:a4:c3:3b:6e:cc:6a:fd:bf:a1:
        66:fc:e5:55:e3:df:e6:63:8e:8a:bb:fe:b3:64:43:7e:d2:80:
        ab:a1:09:4f:ae:50:ea:61:ca:8b:15:e6:c9:5f:b6:28:ee:d9:
        4a:6d:fb:2b:1d:65:1e:84:26:02:7e:5d:ec:32:b6:b7:cd:82:
        97:76:cc:d5:4d:ad:c7:81:79:a3:e6:6a:da:ea:95:89:2c:b1:
        f1:6a:0b:c3:27:b3:5a:90:60:ed:03:bc:75:cf:95:21:81:2a:
        1d:1b:5e:d1:14:8d:a6:01:90:fc:74:fc:87:2e:fe:d0:ef:ba:
        81:34:cd:8f
-----BEGIN CERTIFICATE REQUEST-----
MIICkDCCAXgCAQAwSzEdMBsGA1UEAwwUTGlib3BlYXkgdGVzdCBjZXJ0IDExDjAM
BgNVBAoMBU9wZXJhMQ0wCwYDVQQIDARPc2xvMQswCQYDVQQGEwJOTzCCASIwDQYJ
KoZIhvcNAQEBBQADggEPADCCAQoCggEBAL8B6k9FQR6Wg11CSqIrcBb423nsZgdF
SoqF0CvB8G6H2eGtH+qciw1cP2+cy4yziBrBEA1fUw2S/HIwK0Y+BY/Retle9tSo
OiDKyCzstI3FkQ6ztJmtDlxDdcIAjbjpEVRxYORxGVZty3PKpD08794IDpAbL6SK
gYH9ylAXoKZcqINsNlSpD/PxurH9qpIHLmZOUUq7/lzPkg3vKOCVEv6vX/yaPSRD
Ug9BFZmehPz9d28rl1R+zbrnIQ9SLolbg50NNivCYjKu3gLy/57VNa24d40Gzx7u
zcBUej2q7YLRZN99h9+Pz53M/ddYtq+HAxkLxSHxyINyvKP9g7irpdcCAwEAAaAA
MA0GCSqGSIb3DQEBBQUAA4IBAQCmhRUIYsjFkIbZlUBekcUTFbYqJ7IHF9OpVle4
nxn0O4t7ZsWimbYnVM/2iWem4Om10pSzR67iNTki8tLgH5gC4HlcSjqdlMawMlo2
BUTF9SL4H6+6cL5YgHigUrXe8M04E9Vq6YSfXjaVOjMdsQbpbcwtoqj/usWiyoGD
ouLN/yIEu1tPeA+kwztuzGr9v6Fm/OVV49/mY46Ku/6zZEN+0oCroQlPrlDqYcqL
FebJX7Yo7tlKbfsrHWUehCYCfl3sMra3zYKXdszVTa3HgXmj5mra6pWJLLHxagvD
J7NakGDtA7x1z5UhgSodG17RFI2mAZD8dPyHLv7Q77qBNM2P
-----END CERTIFICATE REQUEST-----
