Certificate Request:
    Data:
        Version: 0 (0x0)
        Subject: CN=Libopeay test cert 2, O=Opera, ST=Oslo, C=NO
        Subject Public Key Info:
            Public Key Algorithm: rsaEncryption
                Public-Key: (2048 bit)
                Modulus:
                    00:c6:fd:2b:d8:5c:d6:a2:e5:7a:0e:91:ba:71:18:
                    a0:79:f9:d2:ad:25:ea:95:16:62:dc:97:f4:13:2f:
                    80:0a:71:9b:69:6e:86:3c:11:4d:6a:ed:5b:0d:74:
                    a7:e0:22:36:e0:f7:1c:aa:8c:e6:d2:dd:85:84:7f:
                    98:17:bf:0c:0a:6c:69:80:f9:72:61:fa:56:60:7c:
                    3c:42:98:29:1a:87:7d:9e:11:32:1d:f8:60:57:c9:
                    73:4c:2a:69:bb:9e:0f:f6:a4:b0:c9:40:bf:4d:f3:
                    e1:cf:f9:2d:79:ed:4a:64:75:a8:f7:82:a9:7b:86:
                    fa:2c:eb:49:f8:1d:a7:1c:eb:69:6c:cd:ed:e0:1e:
                    69:7c:1b:fc:dc:42:2f:68:46:9b:ab:66:45:83:35:
                    f2:c3:8d:d6:cf:b0:66:a5:81:02:05:c5:db:c7:c7:
                    33:b2:80:af:9d:8e:b5:d1:71:97:46:f8:2c:55:23:
                    e2:33:80:a0:0e:37:c6:a5:26:1e:28:44:a7:53:5a:
                    c7:91:67:30:40:d8:9a:98:75:c1:1d:4b:c5:ed:16:
                    9a:40:c2:a1:03:33:99:05:d4:c2:3c:41:8f:79:75:
                    ae:79:ab:eb:d2:ef:8e:0f:ef:93:6b:a5:18:c3:13:
                    ba:e4:c3:e9:84:cc:31:5c:ae:08:1e:bc:de:4a:20:
                    3d:49
                Exponent: 65537 (0x10001)
        Attributes:
            a0:00
    Signature Algorithm: sha1WithRSAEncryption
        21:d8:e4:5c:70:af:0f:aa:cb:79:4c:1c:67:42:ca:9e:a7:f1:
        7d:fe:b5:0e:70:56:04:de:2c:44:6b:d7:cc:be:27:92:60:7f:
        af:fb:43:aa:bd:81:8f:ab:a1:92:fb:5b:57:e6:d8:54:6f:2d:
        72:0e:08:77:55:13:71:8b:44:cb:37:a7:3d:55:cc:74:74:f5:
        9f:f8:75:a6:39:5d:47:4f:3c:a2:70:db:43:5c:81:e3:49:35:
        e3:8f:b2:67:c3:44:bf:f6:80:ac:d7:90:68:b9:41:bd:c3:9f:
        f5:54:30:f8:32:b8:9a:8e:f2:3a:34:e5:3f:00:ec:2e:bb:95:
        23:53:04:1e:4c:19:68:18:8c:2d:36:8f:66:66:fc:e7:d2:85:
        d5:f6:cc:e8:cb:63:df:1d:0a:25:bb:78:a4:2a:f1:59:1e:55:
        ef:64:0e:53:c7:97:69:9a:b6:74:0e:a5:12:c6:7a:b0:20:f0:
        d7:2a:1a:0f:9f:18:a1:be:c8:43:55:29:a1:50:30:18:97:c7:
        f4:ff:74:bd:7c:db:39:3e:21:3b:38:3f:9f:7e:0f:b3:7f:54:
        d2:a9:1b:72:13:5b:f0:4b:eb:3e:99:4a:80:80:f6:4b:ec:24:
        61:7b:ef:8b:a1:7b:92:2e:3f:cb:09:4b:02:0a:72:8b:26:bb:
        b8:18:1e:5b
-----BEGIN CERTIFICATE REQUEST-----
MIICkDCCAXgCAQAwSzEdMBsGA1UEAwwUTGlib3BlYXkgdGVzdCBjZXJ0IDIxDjAM
BgNVBAoMBU9wZXJhMQ0wCwYDVQQIDARPc2xvMQswCQYDVQQGEwJOTzCCASIwDQYJ
KoZIhvcNAQEBBQADggEPADCCAQoCggEBAMb9K9hc1qLleg6RunEYoHn50q0l6pUW
YtyX9BMvgApxm2luhjwRTWrtWw10p+AiNuD3HKqM5tLdhYR/mBe/DApsaYD5cmH6
VmB8PEKYKRqHfZ4RMh34YFfJc0wqabueD/aksMlAv03z4c/5LXntSmR1qPeCqXuG
+izrSfgdpxzraWzN7eAeaXwb/NxCL2hGm6tmRYM18sON1s+wZqWBAgXF28fHM7KA
r52OtdFxl0b4LFUj4jOAoA43xqUmHihEp1Nax5FnMEDYmph1wR1Lxe0WmkDCoQMz
mQXUwjxBj3l1rnmr69Lvjg/vk2ulGMMTuuTD6YTMMVyuCB683kogPUkCAwEAAaAA
MA0GCSqGSIb3DQEBBQUAA4IBAQAh2ORccK8Pqst5TBxnQsqep/F9/rUOcFYE3ixE
a9fMvieSYH+v+0OqvYGPq6GS+1tX5thUby1yDgh3VRNxi0TLN6c9Vcx0dPWf+HWm
OV1HTzyicNtDXIHjSTXjj7Jnw0S/9oCs15BouUG9w5/1VDD4MriajvI6NOU/AOwu
u5UjUwQeTBloGIwtNo9mZvzn0oXV9szoy2PfHQolu3ikKvFZHlXvZA5Tx5dpmrZ0
DqUSxnqwIPDXKhoPnxihvshDVSmhUDAYl8f0/3S9fNs5PiE7OD+ffg+zf1TSqRty
E1vwS+s+mUqAgPZL7CRhe++LoXuSLj/LCUsCCnKLJru4GB5b
-----END CERTIFICATE REQUEST-----
