Certificate:
    Data:
        Version: 3 (0x2)
        Serial Number: 1 (0x1)
        Signature Algorithm: sha1WithRSAEncryption
        Issuer: CN=Libopeay test CA, O=Opera, ST=Oslo, C=NO
        Validity
            Not Before: Mar 22 09:06:53 2012 GMT
            Not After : Mar 20 09:06:53 2022 GMT
        Subject: C=NO, ST=Oslo, O=Opera, CN=Libopeay test cert 1
        Subject Public Key Info:
            Public Key Algorithm: rsaEncryption
                Public-Key: (2048 bit)
                Modulus:
                    00:bf:01:ea:4f:45:41:1e:96:83:5d:42:4a:a2:2b:
                    70:16:f8:db:79:ec:66:07:45:4a:8a:85:d0:2b:c1:
                    f0:6e:87:d9:e1:ad:1f:ea:9c:8b:0d:5c:3f:6f:9c:
                    cb:8c:b3:88:1a:c1:10:0d:5f:53:0d:92:fc:72:30:
                    2b:46:3e:05:8f:d1:7a:d9:5e:f6:d4:a8:3a:20:ca:
                    c8:2c:ec:b4:8d:c5:91:0e:b3:b4:99:ad:0e:5c:43:
                    75:c2:00:8d:b8:e9:11:54:71:60:e4:71:19:56:6d:
                    cb:73:ca:a4:3d:3c:ef:de:08:0e:90:1b:2f:a4:8a:
                    81:81:fd:ca:50:17:a0:a6:5c:a8:83:6c:36:54:a9:
                    0f:f3:f1:ba:b1:fd:aa:92:07:2e:66:4e:51:4a:bb:
                    fe:5c:cf:92:0d:ef:28:e0:95:12:fe:af:5f:fc:9a:
                    3d:24:43:52:0f:41:15:99:9e:84:fc:fd:77:6f:2b:
                    97:54:7e:cd:ba:e7:21:0f:52:2e:89:5b:83:9d:0d:
                    36:2b:c2:62:32:ae:de:02:f2:ff:9e:d5:35:ad:b8:
                    77:8d:06:cf:1e:ee:cd:c0:54:7a:3d:aa:ed:82:d1:
                    64:df:7d:87:df:8f:cf:9d:cc:fd:d7:58:b6:af:87:
                    03:19:0b:c5:21:f1:c8:83:72:bc:a3:fd:83:b8:ab:
                    a5:d7
                Exponent: 65537 (0x10001)
        X509v3 extensions:
            X509v3 Basic Constraints: 
                CA:FALSE
            Netscape Comment: 
                OpenSSL Generated Certificate
            X509v3 Subject Key Identifier: 
                26:7B:CE:04:C3:30:2D:07:98:D4:15:A8:D8:BF:4C:A2:31:88:FD:1A
            X509v3 Authority Key Identifier: 
                keyid:AB:4C:42:A3:27:B1:5C:DE:C2:A3:F1:6C:D9:1C:BD:A0:CE:9D:B9:0D

    Signature Algorithm: sha1WithRSAEncryption
        69:33:1a:e5:12:5e:d4:02:f8:33:3a:b0:b9:67:c1:7c:1d:f6:
        1f:85:0e:b7:25:e2:d9:b9:11:c5:38:88:b2:8d:e7:f8:1a:b4:
        3d:2e:74:ed:42:fb:6c:b7:ca:88:65:69:4a:d3:fe:41:79:c1:
        63:06:be:77:12:ae:20:c9:db:00:11:39:1b:0e:bd:85:e2:c4:
        f0:9b:ca:f8:8b:93:76:7c:4d:98:89:38:4f:5d:e4:f0:87:c8:
        8d:a8:f9:8a:99:d2:30:92:ad:75:0a:df:9a:81:6d:c3:1f:b6:
        ec:56:ac:f4:12:1c:ad:7c:08:b8:dc:83:0a:94:4e:f2:a7:60:
        10:d7:52:e7:87:d2:bd:a0:21:36:fd:dc:41:d2:f3:8c:c5:35:
        9e:60:6e:53:97:8e:d1:18:20:2c:26:83:b4:02:6f:76:20:11:
        47:f0:3c:58:94:b0:99:e5:44:50:6a:bd:c3:e4:e2:25:51:79:
        72:fb:ea:a5:4f:23:b3:f2:61:18:97:0c:e4:82:ca:19:67:02:
        b5:af:36:a0:36:59:11:6c:c2:ed:28:12:a6:77:b6:79:ac:97:
        06:d2:4c:af:46:d8:86:17:ae:31:ac:cf:6d:00:75:aa:29:65:
        90:94:fa:bf:42:3b:ba:ea:09:4f:36:78:4f:d0:ea:85:02:c8:
        d0:0c:ae:d4
-----BEGIN CERTIFICATE-----
MIIDiDCCAnCgAwIBAgIBATANBgkqhkiG9w0BAQUFADBHMRkwFwYDVQQDDBBMaWJv
cGVheSB0ZXN0IENBMQ4wDAYDVQQKDAVPcGVyYTENMAsGA1UECAwET3NsbzELMAkG
A1UEBhMCTk8wHhcNMTIwMzIyMDkwNjUzWhcNMjIwMzIwMDkwNjUzWjBLMQswCQYD
VQQGEwJOTzENMAsGA1UECAwET3NsbzEOMAwGA1UECgwFT3BlcmExHTAbBgNVBAMM
FExpYm9wZWF5IHRlc3QgY2VydCAxMIIBIjANBgkqhkiG9w0BAQEFAAOCAQ8AMIIB
CgKCAQEAvwHqT0VBHpaDXUJKoitwFvjbeexmB0VKioXQK8HwbofZ4a0f6pyLDVw/
b5zLjLOIGsEQDV9TDZL8cjArRj4Fj9F62V721Kg6IMrILOy0jcWRDrO0ma0OXEN1
wgCNuOkRVHFg5HEZVm3Lc8qkPTzv3ggOkBsvpIqBgf3KUBegplyog2w2VKkP8/G6
sf2qkgcuZk5RSrv+XM+SDe8o4JUS/q9f/Jo9JENSD0EVmZ6E/P13byuXVH7Nuuch
D1IuiVuDnQ02K8JiMq7eAvL/ntU1rbh3jQbPHu7NwFR6PartgtFk332H34/Pncz9
11i2r4cDGQvFIfHIg3K8o/2DuKul1wIDAQABo3sweTAJBgNVHRMEAjAAMCwGCWCG
SAGG+EIBDQQfFh1PcGVuU1NMIEdlbmVyYXRlZCBDZXJ0aWZpY2F0ZTAdBgNVHQ4E
FgQUJnvOBMMwLQeY1BWo2L9MojGI/RowHwYDVR0jBBgwFoAUq0xCoyexXN7Co/Fs
2Ry9oM6duQ0wDQYJKoZIhvcNAQEFBQADggEBAGkzGuUSXtQC+DM6sLlnwXwd9h+F
Drcl4tm5EcU4iLKN5/gatD0udO1C+2y3yohlaUrT/kF5wWMGvncSriDJ2wARORsO
vYXixPCbyviLk3Z8TZiJOE9d5PCHyI2o+YqZ0jCSrXUK35qBbcMftuxWrPQSHK18
CLjcgwqUTvKnYBDXUueH0r2gITb93EHS84zFNZ5gblOXjtEYICwmg7QCb3YgEUfw
PFiUsJnlRFBqvcPk4iVReXL76qVPI7PyYRiXDOSCyhlnArWvNqA2WRFswu0oEqZ3
tnmslwbSTK9G2IYXrjGsz20AdaopZZCU+r9CO7rqCU82eE/Q6oUCyNAMrtQ=
-----END CERTIFICATE-----
