Certificate:
    Data:
        Version: 3 (0x2)
        Serial Number: 2 (0x2)
        Signature Algorithm: sha1WithRSAEncryption
        Issuer: CN=Libopeay test CA, O=Opera, ST=Oslo, C=NO
        Validity
            Not Before: Mar 22 09:06:53 2012 GMT
            Not After : Mar 20 09:06:53 2022 GMT
        Subject: C=NO, ST=Oslo, O=Opera, CN=Libopeay test cert 2
        Subject Public Key Info:
            Public Key Algorithm: rsaEncryption
                Public-Key: (2048 bit)
                Modulus:
                    00:c6:fd:2b:d8:5c:d6:a2:e5:7a:0e:91:ba:71:18:
                    a0:79:f9:d2:ad:25:ea:95:16:62:dc:97:f4:13:2f:
                    80:0a:71:9b:69:6e:86:3c:11:4d:6a:ed:5b:0d:74:
                    a7:e0:22:36:e0:f7:1c:aa:8c:e6:d2:dd:85:84:7f:
                    98:17:bf:0c:0a:6c:69:80:f9:72:61:fa:56:60:7c:
                    3c:42:98:29:1a:87:7d:9e:11:32:1d:f8:60:57:c9:
                    73:4c:2a:69:bb:9e:0f:f6:a4:b0:c9:40:bf:4d:f3:
                    e1:cf:f9:2d:79:ed:4a:64:75:a8:f7:82:a9:7b:86:
                    fa:2c:eb:49:f8:1d:a7:1c:eb:69:6c:cd:ed:e0:1e:
                    69:7c:1b:fc:dc:42:2f:68:46:9b:ab:66:45:83:35:
                    f2:c3:8d:d6:cf:b0:66:a5:81:02:05:c5:db:c7:c7:
                    33:b2:80:af:9d:8e:b5:d1:71:97:46:f8:2c:55:23:
                    e2:33:80:a0:0e:37:c6:a5:26:1e:28:44:a7:53:5a:
                    c7:91:67:30:40:d8:9a:98:75:c1:1d:4b:c5:ed:16:
                    9a:40:c2:a1:03:33:99:05:d4:c2:3c:41:8f:79:75:
                    ae:79:ab:eb:d2:ef:8e:0f:ef:93:6b:a5:18:c3:13:
                    ba:e4:c3:e9:84:cc:31:5c:ae:08:1e:bc:de:4a:20:
                    3d:49
                Exponent: 65537 (0x10001)
        X509v3 extensions:
            X509v3 Basic Constraints: 
                CA:FALSE
            Netscape Comment: 
                OpenSSL Generated Certificate
            X509v3 Subject Key Identifier: 
                67:A3:13:41:E1:D1:81:9F:8B:00:AB:EF:F5:B8:80:E0:D4:60:9A:49
            X509v3 Authority Key Identifier: 
                keyid:AB:4C:42:A3:27:B1:5C:DE:C2:A3:F1:6C:D9:1C:BD:A0:CE:9D:B9:0D

    Signature Algorithm: sha1WithRSAEncryption
        4e:78:80:8e:b6:a7:f3:cf:da:7b:66:20:74:ac:93:3f:36:ad:
        fa:e3:21:3a:36:fb:a4:49:0f:b9:5e:fa:10:ae:8e:34:ab:89:
        fb:99:3e:df:57:95:aa:59:27:6c:c7:6a:63:f8:29:dc:af:f7:
        70:3a:71:fc:3b:7b:2e:ae:5b:a1:8d:cc:b4:1a:d5:64:4a:09:
        d4:b4:0c:25:e1:f1:70:13:01:a7:69:b1:50:6e:a7:92:b3:66:
        0a:4d:7c:30:bd:5e:ba:2c:6d:45:48:e3:55:a6:fc:7d:c5:67:
        7c:a3:6c:b8:df:4e:fa:7f:eb:27:4c:60:df:4e:cd:5b:10:b2:
        3b:70:02:f2:48:1a:95:23:49:7b:eb:38:99:9a:16:f7:6b:3b:
        85:9a:76:a2:3e:e8:cc:db:5b:f7:90:f8:1d:b2:2e:b0:ad:01:
        4b:35:d0:bb:63:c7:7b:df:68:8d:41:26:3a:eb:56:01:b1:29:
        bf:b3:3c:a6:69:b8:11:af:6a:f5:35:fa:dd:62:c8:44:e9:8b:
        7d:c4:80:eb:37:ab:4e:97:4b:d8:08:e3:ad:68:a8:cb:4d:b3:
        98:02:be:47:8d:78:3c:2b:75:94:51:f5:02:e4:71:a0:42:6d:
        c0:d2:54:30:0d:24:80:23:8e:53:14:12:e0:ae:91:e3:41:5b:
        2e:cd:3a:55
-----BEGIN CERTIFICATE-----
MIIDiDCCAnCgAwIBAgIBAjANBgkqhkiG9w0BAQUFADBHMRkwFwYDVQQDDBBMaWJv
cGVheSB0ZXN0IENBMQ4wDAYDVQQKDAVPcGVyYTENMAsGA1UECAwET3NsbzELMAkG
A1UEBhMCTk8wHhcNMTIwMzIyMDkwNjUzWhcNMjIwMzIwMDkwNjUzWjBLMQswCQYD
VQQGEwJOTzENMAsGA1UECAwET3NsbzEOMAwGA1UECgwFT3BlcmExHTAbBgNVBAMM
FExpYm9wZWF5IHRlc3QgY2VydCAyMIIBIjANBgkqhkiG9w0BAQEFAAOCAQ8AMIIB
CgKCAQEAxv0r2FzWouV6DpG6cRigefnSrSXqlRZi3Jf0Ey+ACnGbaW6GPBFNau1b
DXSn4CI24Pccqozm0t2FhH+YF78MCmxpgPlyYfpWYHw8QpgpGod9nhEyHfhgV8lz
TCppu54P9qSwyUC/TfPhz/ktee1KZHWo94Kpe4b6LOtJ+B2nHOtpbM3t4B5pfBv8
3EIvaEabq2ZFgzXyw43Wz7BmpYECBcXbx8czsoCvnY610XGXRvgsVSPiM4CgDjfG
pSYeKESnU1rHkWcwQNiamHXBHUvF7RaaQMKhAzOZBdTCPEGPeXWueavr0u+OD++T
a6UYwxO65MPphMwxXK4IHrzeSiA9SQIDAQABo3sweTAJBgNVHRMEAjAAMCwGCWCG
SAGG+EIBDQQfFh1PcGVuU1NMIEdlbmVyYXRlZCBDZXJ0aWZpY2F0ZTAdBgNVHQ4E
FgQUZ6MTQeHRgZ+LAKvv9biA4NRgmkkwHwYDVR0jBBgwFoAUq0xCoyexXN7Co/Fs
2Ry9oM6duQ0wDQYJKoZIhvcNAQEFBQADggEBAE54gI62p/PP2ntmIHSskz82rfrj
ITo2+6RJD7le+hCujjSrifuZPt9XlapZJ2zHamP4Kdyv93A6cfw7ey6uW6GNzLQa
1WRKCdS0DCXh8XATAadpsVBup5KzZgpNfDC9XrosbUVI41Wm/H3FZ3yjbLjfTvp/
6ydMYN9OzVsQsjtwAvJIGpUjSXvrOJmaFvdrO4WadqI+6MzbW/eQ+B2yLrCtAUs1
0Ltjx3vfaI1BJjrrVgGxKb+zPKZpuBGvavU1+t1iyETpi33EgOs3q06XS9gI461o
qMtNs5gCvkeNeDwrdZRR9QLkcaBCbcDSVDANJIAjjlMUEuCukeNBWy7NOlU=
-----END CERTIFICATE-----
