Certificate:
    Data:
        Version: 3 (0x2)
        Serial Number: 2 (0x2)
        Signature Algorithm: sha1WithRSAEncryption
        Issuer: C=NO, ST=Oslo, O=World Wide Web Consortium, OU=w3c-widgets-digsig-testsuite second level certificate, CN=http://www.w3.org//emailAddress=stuartk@opera.com
        Validity
            Not Before: Sep 24 08:46:12 2010 GMT
            Not After : Sep 19 08:46:12 2030 GMT
        Subject: C=NO, ST=Oslo, O=World Wide Web Consortium, OU=w3c-widgets-digsig-testsuite sig and encryption certificate, CN=http://www.w3.org//emailAddress=stuartk@opera.com
        Subject Public Key Info:
            Public Key Algorithm: rsaEncryption
            RSA Public Key: (2048 bit)
                Modulus (2048 bit):
                    00:ac:96:91:5a:32:63:5a:0e:68:85:61:80:91:1b:
                    21:54:83:33:bc:8f:c4:80:d9:55:7d:42:19:ae:04:
                    ac:1c:73:2d:5f:fd:91:1f:6c:90:22:41:4d:05:20:
                    b7:49:44:5b:39:95:a7:2a:10:fb:a4:53:4f:a6:3d:
                    62:84:ed:3b:29:32:c1:57:a9:66:c0:2b:38:38:f6:
                    b5:c8:e0:a6:b8:cb:f1:d4:ed:88:ef:9c:00:0d:24:
                    63:6d:d9:d9:ae:94:00:f7:f1:99:80:08:09:1b:6b:
                    17:10:ed:4a:64:62:a4:81:07:e9:26:db:8e:85:7a:
                    13:44:f4:2d:73:e2:3b:62:25:97:07:9c:1c:ba:91:
                    35:b0:9b:d1:f7:a1:cd:1d:26:47:b7:34:25:e6:51:
                    f3:dd:d6:6c:ca:5f:3f:14:31:96:3e:86:e5:df:6d:
                    3d:a1:c2:43:78:e1:e5:04:b5:c5:41:ba:3d:cb:2d:
                    61:a6:b5:6f:87:e7:ea:7e:f7:fa:d3:5d:b7:0b:4f:
                    a7:5f:55:37:95:e3:53:13:bc:2e:dc:4e:fc:00:3f:
                    d7:35:23:3e:12:f6:f4:73:73:7b:cf:1f:c6:66:cf:
                    b1:03:55:8b:30:74:fd:be:a5:fd:66:9b:cb:43:2d:
                    75:c5:f9:f1:5e:9b:33:63:30:04:73:2f:fc:35:02:
                    23:8f
                Exponent: 65537 (0x10001)
        X509v3 extensions:
            X509v3 Basic Constraints: 
                CA:FALSE
            Netscape Cert Type: 
                SSL Client, S/MIME, Object Signing
            X509v3 Key Usage: 
                Digital Signature, Non Repudiation, Key Encipherment
            Netscape Comment: 
                w3c-widgets-digsig-testsuite sig and encryption certificate
            X509v3 Subject Key Identifier: 
                25:26:97:91:38:82:19:EE:60:04:4E:F1:88:FA:68:92:11:A0:92:A4
            X509v3 Authority Key Identifier: 
                keyid:0D:D0:6B:B4:C6:0B:9C:F7:F7:CD:A6:99:6E:E8:B4:92:8A:BF:CC:76
                DirName:/C=NO/ST=Oslo/L=Oslo/O=World Wide Web Consortium/OU=w3c-widgets-digsig-testsuite root certificate/CN=http://www.w3.org//emailAddress=stuartk@opera.com
                serial:01

    Signature Algorithm: sha1WithRSAEncryption
        ac:f2:94:94:4e:85:5e:1f:c3:94:05:e0:45:cb:0e:e2:04:ca:
        35:ac:6c:8f:a4:a4:c7:b5:f0:fc:ac:47:57:da:0f:d4:e1:42:
        ea:8d:16:98:a9:f6:5b:57:34:9d:ac:5e:cd:a4:0b:53:10:ad:
        fa:3b:2a:c5:68:a8:ed:b8:5b:44:82:26:7c:f8:6f:4b:16:99:
        3f:3f:b3:a0:be:8a:e4:6e:8f:5f:a5:d2:06:4a:f5:fa:76:05:
        d6:aa:20:81:4c:91:2f:4c:cb:ab:24:04:dd:be:52:48:64:e4:
        e4:ce:57:4f:42:05:51:10:2d:21:85:2c:55:eb:a9:ba:66:3c:
        8d:f0:60:55:c7:08:49:1b:d6:b0:c2:34:c4:dc:e0:58:44:08:
        9a:09:bd:4b:9f:fd:4f:2a:2b:d5:9f:80:df:2f:a5:0d:8a:aa:
        97:b0:66:0a:64:b0:8e:4e:8b:63:78:30:20:d5:b7:b2:56:09:
        aa:c3:8e:eb:a0:6b:b9:cc:ae:14:02:89:e2:96:64:08:fa:c2:
        e9:24:24:d8:3c:f9:6f:93:2e:43:3b:ab:f9:30:12:9d:b2:eb:
        c5:9a:6f:2a:47:22:f1:05:1a:0f:45:4b:05:2d:03:fa:bb:1b:
        c9:69:b7:d8:b9:e7:fd:d0:09:f0:f0:83:b2:03:b4:3a:62:92:
        ea:36:f3:10
-----BEGIN CERTIFICATE-----
MIIFkzCCBHugAwIBAgIBAjANBgkqhkiG9w0BAQUFADCBvzELMAkGA1UEBhMCTk8x
DTALBgNVBAgTBE9zbG8xIjAgBgNVBAoTGVdvcmxkIFdpZGUgV2ViIENvbnNvcnRp
dW0xPjA8BgNVBAsTNXczYy13aWRnZXRzLWRpZ3NpZy10ZXN0c3VpdGUgc2Vjb25k
IGxldmVsIGNlcnRpZmljYXRlMRswGQYDVQQDExJodHRwOi8vd3d3LnczLm9yZy8x
IDAeBgkqhkiG9w0BCQEWEXN0dWFydGtAb3BlcmEuY29tMB4XDTEwMDkyNDA4NDYx
MloXDTMwMDkxOTA4NDYxMlowgcUxCzAJBgNVBAYTAk5PMQ0wCwYDVQQIEwRPc2xv
MSIwIAYDVQQKExlXb3JsZCBXaWRlIFdlYiBDb25zb3J0aXVtMUQwQgYDVQQLEzt3
M2Mtd2lkZ2V0cy1kaWdzaWctdGVzdHN1aXRlIHNpZyBhbmQgZW5jcnlwdGlvbiBj
ZXJ0aWZpY2F0ZTEbMBkGA1UEAxMSaHR0cDovL3d3dy53My5vcmcvMSAwHgYJKoZI
hvcNAQkBFhFzdHVhcnRrQG9wZXJhLmNvbTCCASIwDQYJKoZIhvcNAQEBBQADggEP
ADCCAQoCggEBAKyWkVoyY1oOaIVhgJEbIVSDM7yPxIDZVX1CGa4ErBxzLV/9kR9s
kCJBTQUgt0lEWzmVpyoQ+6RTT6Y9YoTtOykywVepZsArODj2tcjgprjL8dTtiO+c
AA0kY23Z2a6UAPfxmYAICRtrFxDtSmRipIEH6SbbjoV6E0T0LXPiO2IllwecHLqR
NbCb0fehzR0mR7c0JeZR893WbMpfPxQxlj6G5d9tPaHCQ3jh5QS1xUG6PcstYaa1
b4fn6n73+tNdtwtPp19VN5XjUxO8LtxO/AA/1zUjPhL29HNze88fxmbPsQNVizB0
/b6l/Waby0MtdcX58V6bM2MwBHMv/DUCI48CAwEAAaOCAZAwggGMMAkGA1UdEwQC
MAAwEQYJYIZIAYb4QgEBBAQDAgSwMAsGA1UdDwQEAwIF4DBKBglghkgBhvhCAQ0E
PRY7dzNjLXdpZGdldHMtZGlnc2lnLXRlc3RzdWl0ZSBzaWcgYW5kIGVuY3J5cHRp
b24gY2VydGlmaWNhdGUwHQYDVR0OBBYEFCUml5E4ghnuYARO8Yj6aJIRoJKkMIHz
BgNVHSMEgeswgeiAFA3Qa7TGC5z3982mmW7otJKKv8x2oYHMpIHJMIHGMQswCQYD
VQQGEwJOTzENMAsGA1UECBMET3NsbzENMAsGA1UEBxMET3NsbzEiMCAGA1UEChMZ
V29ybGQgV2lkZSBXZWIgQ29uc29ydGl1bTE2MDQGA1UECxMtdzNjLXdpZGdldHMt
ZGlnc2lnLXRlc3RzdWl0ZSByb290IGNlcnRpZmljYXRlMRswGQYDVQQDExJodHRw
Oi8vd3d3LnczLm9yZy8xIDAeBgkqhkiG9w0BCQEWEXN0dWFydGtAb3BlcmEuY29t
ggEBMA0GCSqGSIb3DQEBBQUAA4IBAQCs8pSUToVeH8OUBeBFyw7iBMo1rGyPpKTH
tfD8rEdX2g/U4ULqjRaYqfZbVzSdrF7NpAtTEK36OyrFaKjtuFtEgiZ8+G9LFpk/
P7Ogvorkbo9fpdIGSvX6dgXWqiCBTJEvTMurJATdvlJIZOTkzldPQgVREC0hhSxV
66m6ZjyN8GBVxwhJG9awwjTE3OBYRAiaCb1Ln/1PKivVn4DfL6UNiqqXsGYKZLCO
TotjeDAg1beyVgmqw47roGu5zK4UAonilmQI+sLpJCTYPPlvky5DO6v5MBKdsuvF
mm8qRyLxBRoPRUsFLQP6uxvJabfYuef90Anw8IOyA7Q6YpLqNvMQ
-----END CERTIFICATE-----
