Certificate:
    Data:
        Version: 3 (0x2)
        Serial Number: 6 (0x6)
        Signature Algorithm: sha1WithRSAEncryption
        Issuer: C=NO, ST=Oslo, O=World Wide Web Consortium, OU=w3c-widgets-digsig-testsuite second level certificate, CN=http://www.w3.org//emailAddress=stuartk@opera.com
        Validity
            Not Before: Dec  1 09:50:00 2010 GMT
            Not After : Nov 26 09:50:00 2030 GMT
        Subject: C=NO, ST=Oslo, O=World Wide Web Consortium, OU=w3c-widgets-digsig-testsuite good sig and enc cert, CN=http://www.w3.org//emailAddress=stuartk@opera.com
        Subject Public Key Info:
            Public Key Algorithm: rsaEncryption
            RSA Public Key: (2048 bit)
                Modulus (2048 bit):
                    00:da:8a:4f:16:23:d9:dc:bb:38:3f:b0:4f:4a:9c:
                    4b:ae:32:31:67:84:ed:f5:ac:cb:5e:09:fa:5c:e8:
                    8a:6c:dc:f8:7e:1b:10:17:1f:76:e1:32:5c:46:ee:
                    5d:fa:7e:8b:b9:77:dd:c5:72:d3:97:18:87:88:ac:
                    4c:36:29:ad:e4:50:fd:e8:12:0b:c3:41:5c:7e:cc:
                    88:e1:46:d1:fb:ab:17:26:56:73:65:96:33:d8:32:
                    ab:a1:c3:a3:79:90:64:d2:5e:20:6c:c6:6d:a5:21:
                    a7:55:ae:2d:4f:ce:0d:75:e7:72:51:56:a8:45:84:
                    29:71:73:b3:6c:c0:4b:bb:96:e7:e6:3d:b9:11:e7:
                    ea:74:f7:b0:8a:4f:8d:7f:1c:41:b5:88:e0:c3:a6:
                    28:1d:f3:aa:4d:a8:94:21:7c:1e:ba:11:aa:76:07:
                    93:5e:b9:e3:85:82:6c:84:46:05:74:a3:14:ca:f6:
                    3f:29:76:da:46:52:67:b6:2c:8c:51:f3:9d:97:34:
                    38:e3:f4:c9:26:5f:4f:8c:31:6b:c7:a5:e3:bb:fc:
                    14:6b:11:cb:88:d8:2f:ed:27:fd:a5:87:fb:1a:43:
                    e3:77:d3:3c:4d:31:0e:22:d5:f7:58:5a:cf:5c:1b:
                    41:a6:91:00:3c:dc:c3:41:9e:7d:aa:17:04:18:0f:
                    d2:27
                Exponent: 65537 (0x10001)
        X509v3 extensions:
            X509v3 Basic Constraints: 
                CA:FALSE
            Netscape Cert Type: 
                SSL Client, S/MIME, Object Signing
            X509v3 Key Usage: 
                Digital Signature, Non Repudiation, Key Encipherment
            Netscape Comment: 
                w3c-widgets-digsig-testsuite good sig and enc cert
            X509v3 Subject Key Identifier: 
                80:68:74:BD:6D:BE:27:37:B9:84:0C:75:D3:0C:DB:63:70:CF:1E:44
            X509v3 Authority Key Identifier: 
                keyid:0D:D0:6B:B4:C6:0B:9C:F7:F7:CD:A6:99:6E:E8:B4:92:8A:BF:CC:76
                DirName:/C=NO/ST=Oslo/L=Oslo/O=World Wide Web Consortium/OU=w3c-widgets-digsig-testsuite root certificate/CN=http://www.w3.org//emailAddress=stuartk@opera.com
                serial:01

            Authority Information Access: 
                OCSP - URI:http://jajo.wroclaw.osa:6277/

    Signature Algorithm: sha1WithRSAEncryption
        3d:7f:ab:e6:50:77:90:1c:98:9c:47:6b:9d:08:97:cb:c5:28:
        d9:7c:43:cd:46:75:af:bb:fb:77:7e:8d:d0:79:3e:59:85:59:
        ec:f4:d4:4b:7f:e1:8c:d4:ba:ab:42:4f:9b:91:9d:b4:81:b0:
        c7:ef:ea:bc:04:ed:5b:f2:3e:a1:b4:b9:c7:0e:99:2a:c6:28:
        27:6d:27:c5:46:71:5a:65:aa:65:9e:2d:7d:cf:b1:db:1c:da:
        fd:38:62:93:fa:a4:cc:8f:08:6e:90:52:b1:f5:26:dc:d4:9f:
        15:e3:ea:24:9c:3b:f7:ed:cf:d5:a7:3c:83:98:c2:b1:bb:37:
        6c:7c:67:26:f2:9a:fd:01:89:11:20:2a:f0:5b:54:f3:f7:cb:
        3a:ee:35:0b:ed:f0:6d:0e:1b:07:0d:22:2b:9e:f1:b3:31:aa:
        b3:34:e4:c2:c3:cf:53:8a:4d:05:33:6e:2c:59:91:cd:56:93:
        35:a7:e0:56:96:58:29:ad:88:7e:17:83:25:0a:9d:46:55:3b:
        c7:87:ce:a9:40:0f:12:78:55:fe:7a:0e:12:43:68:cf:8b:de:
        66:5a:c3:26:4f:b1:43:4c:9a:64:41:2e:ac:42:19:ad:e2:bd:
        fb:d6:14:27:80:6b:ba:43:08:95:4d:ab:1e:72:18:cf:2c:7a:
        34:26:ac:e0
-----BEGIN CERTIFICATE-----
MIIFvDCCBKSgAwIBAgIBBjANBgkqhkiG9w0BAQUFADCBvzELMAkGA1UEBhMCTk8x
DTALBgNVBAgTBE9zbG8xIjAgBgNVBAoTGVdvcmxkIFdpZGUgV2ViIENvbnNvcnRp
dW0xPjA8BgNVBAsTNXczYy13aWRnZXRzLWRpZ3NpZy10ZXN0c3VpdGUgc2Vjb25k
IGxldmVsIGNlcnRpZmljYXRlMRswGQYDVQQDExJodHRwOi8vd3d3LnczLm9yZy8x
IDAeBgkqhkiG9w0BCQEWEXN0dWFydGtAb3BlcmEuY29tMB4XDTEwMTIwMTA5NTAw
MFoXDTMwMTEyNjA5NTAwMFowgbwxCzAJBgNVBAYTAk5PMQ0wCwYDVQQIEwRPc2xv
MSIwIAYDVQQKExlXb3JsZCBXaWRlIFdlYiBDb25zb3J0aXVtMTswOQYDVQQLEzJ3
M2Mtd2lkZ2V0cy1kaWdzaWctdGVzdHN1aXRlIGdvb2Qgc2lnIGFuZCBlbmMgY2Vy
dDEbMBkGA1UEAxMSaHR0cDovL3d3dy53My5vcmcvMSAwHgYJKoZIhvcNAQkBFhFz
dHVhcnRrQG9wZXJhLmNvbTCCASIwDQYJKoZIhvcNAQEBBQADggEPADCCAQoCggEB
ANqKTxYj2dy7OD+wT0qcS64yMWeE7fWsy14J+lzoimzc+H4bEBcfduEyXEbuXfp+
i7l33cVy05cYh4isTDYpreRQ/egSC8NBXH7MiOFG0furFyZWc2WWM9gyq6HDo3mQ
ZNJeIGzGbaUhp1WuLU/ODXXnclFWqEWEKXFzs2zAS7uW5+Y9uRHn6nT3sIpPjX8c
QbWI4MOmKB3zqk2olCF8HroRqnYHk16544WCbIRGBXSjFMr2Pyl22kZSZ7YsjFHz
nZc0OOP0ySZfT4wxa8el47v8FGsRy4jYL+0n/aWH+xpD43fTPE0xDiLV91haz1wb
QaaRADzcw0GefaoXBBgP0icCAwEAAaOCAcIwggG+MAkGA1UdEwQCMAAwEQYJYIZI
AYb4QgEBBAQDAgSwMAsGA1UdDwQEAwIF4DBBBglghkgBhvhCAQ0ENBYydzNjLXdp
ZGdldHMtZGlnc2lnLXRlc3RzdWl0ZSBnb29kIHNpZyBhbmQgZW5jIGNlcnQwHQYD
VR0OBBYEFIBodL1tvic3uYQMddMM22Nwzx5EMIHzBgNVHSMEgeswgeiAFA3Qa7TG
C5z3982mmW7otJKKv8x2oYHMpIHJMIHGMQswCQYDVQQGEwJOTzENMAsGA1UECBME
T3NsbzENMAsGA1UEBxMET3NsbzEiMCAGA1UEChMZV29ybGQgV2lkZSBXZWIgQ29u
c29ydGl1bTE2MDQGA1UECxMtdzNjLXdpZGdldHMtZGlnc2lnLXRlc3RzdWl0ZSBy
b290IGNlcnRpZmljYXRlMRswGQYDVQQDExJodHRwOi8vd3d3LnczLm9yZy8xIDAe
BgkqhkiG9w0BCQEWEXN0dWFydGtAb3BlcmEuY29tggEBMDkGCCsGAQUFBwEBBC0w
KzApBggrBgEFBQcwAYYdaHR0cDovL2pham8ud3JvY2xhdy5vc2E6NjI3Ny8wDQYJ
KoZIhvcNAQEFBQADggEBAD1/q+ZQd5AcmJxHa50Il8vFKNl8Q81Gda+7+3d+jdB5
PlmFWez01Et/4YzUuqtCT5uRnbSBsMfv6rwE7VvyPqG0uccOmSrGKCdtJ8VGcVpl
qmWeLX3Psdsc2v04YpP6pMyPCG6QUrH1JtzUnxXj6iScO/ftz9WnPIOYwrG7N2x8
Zybymv0BiREgKvBbVPP3yzruNQvt8G0OGwcNIiue8bMxqrM05MLDz1OKTQUzbixZ
kc1WkzWn4FaWWCmtiH4XgyUKnUZVO8eHzqlADxJ4Vf56DhJDaM+L3mZawyZPsUNM
mmRBLqxCGa3ivfvWFCeAa7pDCJVNqx5yGM8sejQmrOA=
-----END CERTIFICATE-----
