Certificate:
    Data:
        Version: 3 (0x2)
        Serial Number:
            9e:ec:e9:ad:80:d1:26:a4
        Signature Algorithm: sha1WithRSAEncryption
        Issuer: CN=Libopeay test CA, O=Opera, ST=Oslo, C=NO
        Validity
            Not Before: Mar 22 09:06:53 2012 GMT
            Not After : Mar 20 09:06:53 2022 GMT
        Subject: CN=Libopeay test CA, O=Opera, ST=Oslo, C=NO
        Subject Public Key Info:
            Public Key Algorithm: rsaEncryption
                Public-Key: (2048 bit)
                Modulus:
                    00:e0:50:a9:ca:3e:87:3e:5e:08:b9:e6:75:f1:ba:
                    d3:53:5e:84:0a:93:8e:5c:04:07:51:28:b8:96:de:
                    fa:09:0c:1d:df:8d:ff:5b:3b:eb:2b:6e:c6:ad:54:
                    e4:0c:24:49:2a:d7:59:8f:ac:63:8f:c8:d3:b0:2b:
                    63:a7:f5:1f:1c:c6:de:f7:f1:b9:44:ba:45:9a:1a:
                    6c:76:16:6d:59:81:1a:31:1c:34:4e:d7:3d:60:9d:
                    91:f3:b0:79:e7:df:eb:a7:6d:94:b9:36:28:03:eb:
                    34:8b:6e:8f:f7:4f:35:de:20:71:cc:f6:c5:09:b4:
                    21:4e:4f:57:d6:ef:b4:60:c6:fa:77:ee:b6:98:44:
                    0c:0b:bd:05:b2:56:2e:98:6b:0f:b1:70:32:00:8f:
                    34:eb:78:0b:0f:4c:07:c2:20:23:7d:32:2a:8f:0b:
                    09:f4:45:8c:0a:28:f3:a3:6b:93:4a:dc:36:56:8b:
                    77:ed:83:37:71:2a:fb:55:a4:4b:3f:47:2d:bc:03:
                    60:7d:59:11:59:9a:70:13:a8:7e:a2:8f:6c:66:45:
                    b1:8b:2d:d5:6b:ff:12:38:f3:b2:9e:24:a3:97:65:
                    b5:f3:3c:20:8a:3d:41:36:03:e1:b8:b8:da:03:40:
                    bc:5c:44:43:08:3f:96:2c:29:79:5d:0b:45:3d:7f:
                    22:6b
                Exponent: 65537 (0x10001)
        X509v3 extensions:
            X509v3 Subject Key Identifier: 
                AB:4C:42:A3:27:B1:5C:DE:C2:A3:F1:6C:D9:1C:BD:A0:CE:9D:B9:0D
            X509v3 Authority Key Identifier: 
                keyid:AB:4C:42:A3:27:B1:5C:DE:C2:A3:F1:6C:D9:1C:BD:A0:CE:9D:B9:0D

            X509v3 Basic Constraints: 
                CA:TRUE
    Signature Algorithm: sha1WithRSAEncryption
        d3:81:e3:dd:93:2a:78:6c:80:cf:1b:61:7e:71:58:b3:1e:b3:
        9e:33:84:a9:dc:b3:60:3f:16:af:a6:3d:6c:be:de:33:2a:5d:
        12:57:6e:1f:1d:5d:56:e3:2a:68:99:34:ff:52:93:95:88:ea:
        f1:22:55:e6:de:fb:74:f0:37:94:73:95:1a:07:8d:7f:c8:d0:
        41:a6:1d:9d:7e:e6:92:f6:bd:3e:84:6c:c0:68:aa:22:a3:d9:
        47:20:c5:31:4b:98:9e:f6:7c:35:98:d4:5b:a0:37:5b:e4:9d:
        c3:d5:ab:a1:2b:91:e5:df:f7:ae:27:2c:68:73:83:cc:6f:2f:
        21:ab:88:3b:91:dc:9b:1f:19:be:65:38:e2:f5:80:25:6f:95:
        d6:e2:9d:3f:26:5d:d2:eb:97:7a:8e:74:6c:63:a7:99:2f:5f:
        34:4a:ae:85:c5:7b:70:98:ac:c1:c0:95:10:b0:bf:fb:3b:79:
        96:bb:f5:10:09:28:32:32:2e:47:76:ff:48:f5:78:be:b9:57:
        c4:cf:ec:9e:9f:3c:8b:cc:d4:53:4a:75:03:0f:f0:1e:22:af:
        29:d7:8c:79:4b:5e:e0:f6:10:b6:15:d7:4a:c7:72:9f:a8:77:
        89:89:15:3b:77:00:6c:c9:89:e5:06:b2:a0:ef:48:f6:62:cb:
        74:2c:16:2c
-----BEGIN CERTIFICATE-----
MIIDYTCCAkmgAwIBAgIJAJ7s6a2A0SakMA0GCSqGSIb3DQEBBQUAMEcxGTAXBgNV
BAMMEExpYm9wZWF5IHRlc3QgQ0ExDjAMBgNVBAoMBU9wZXJhMQ0wCwYDVQQIDARP
c2xvMQswCQYDVQQGEwJOTzAeFw0xMjAzMjIwOTA2NTNaFw0yMjAzMjAwOTA2NTNa
MEcxGTAXBgNVBAMMEExpYm9wZWF5IHRlc3QgQ0ExDjAMBgNVBAoMBU9wZXJhMQ0w
CwYDVQQIDARPc2xvMQswCQYDVQQGEwJOTzCCASIwDQYJKoZIhvcNAQEBBQADggEP
ADCCAQoCggEBAOBQqco+hz5eCLnmdfG601NehAqTjlwEB1EouJbe+gkMHd+N/1s7
6ytuxq1U5AwkSSrXWY+sY4/I07ArY6f1HxzG3vfxuUS6RZoabHYWbVmBGjEcNE7X
PWCdkfOweeff66dtlLk2KAPrNItuj/dPNd4gccz2xQm0IU5PV9bvtGDG+nfutphE
DAu9BbJWLphrD7FwMgCPNOt4Cw9MB8IgI30yKo8LCfRFjAoo86Nrk0rcNlaLd+2D
N3Eq+1WkSz9HLbwDYH1ZEVmacBOofqKPbGZFsYst1Wv/Ejjzsp4ko5dltfM8IIo9
QTYD4bi42gNAvFxEQwg/liwpeV0LRT1/ImsCAwEAAaNQME4wHQYDVR0OBBYEFKtM
QqMnsVzewqPxbNkcvaDOnbkNMB8GA1UdIwQYMBaAFKtMQqMnsVzewqPxbNkcvaDO
nbkNMAwGA1UdEwQFMAMBAf8wDQYJKoZIhvcNAQEFBQADggEBANOB492TKnhsgM8b
YX5xWLMes54zhKncs2A/Fq+mPWy+3jMqXRJXbh8dXVbjKmiZNP9Sk5WI6vEiVebe
+3TwN5RzlRoHjX/I0EGmHZ1+5pL2vT6EbMBoqiKj2UcgxTFLmJ72fDWY1FugN1vk
ncPVq6ErkeXf964nLGhzg8xvLyGriDuR3JsfGb5lOOL1gCVvldbinT8mXdLrl3qO
dGxjp5kvXzRKroXFe3CYrMHAlRCwv/s7eZa79RAJKDIyLkd2/0j1eL65V8TP7J6f
PIvM1FNKdQMP8B4irynXjHlLXuD2ELYV10rHcp+od4mJFTt3AGzJieUGsqDvSPZi
y3QsFiw=
-----END CERTIFICATE-----
