Certificate Revocation List (CRL):
        Version 2 (0x1)
        Signature Algorithm: sha1WithRSAEncryption
        Issuer: /CN=Libopeay test CA/O=Opera/ST=Oslo/C=NO
        Last Update: Mar 22 09:06:53 2012 GMT
        Next Update: Mar 20 09:06:53 2022 GMT
        CRL extensions:
            X509v3 CRL Number: 
                1
No Revoked Certificates.
    Signature Algorithm: sha1WithRSAEncryption
        21:aa:98:74:d6:1f:52:2b:d0:ef:ac:35:fa:1c:d4:e2:40:e8:
        38:95:5f:40:ab:00:64:43:1b:8a:47:c4:c2:b7:83:63:97:42:
        05:05:7f:72:12:0f:4b:01:f7:0e:7e:a5:56:b4:64:4f:2d:c8:
        d7:c3:aa:ef:40:8d:06:0c:f8:e7:44:19:a8:49:b6:b4:dd:58:
        70:db:cc:6a:c2:06:96:43:55:ee:0d:93:f2:cc:77:fc:cf:08:
        cb:b0:f0:2c:63:24:7b:b1:7a:2d:46:0c:46:54:b8:ef:8e:82:
        93:f1:fe:b1:d3:2d:16:69:55:4c:4d:0e:63:54:5f:17:20:38:
        a1:eb:56:b4:f5:c4:79:06:87:e5:c7:67:d7:71:09:1c:f7:93:
        38:5f:e5:95:2e:17:6a:78:1c:b2:94:10:18:e4:b2:40:b8:54:
        80:38:93:8d:71:9e:fb:9a:2f:be:48:95:c1:f6:86:13:20:7d:
        74:c7:99:2c:cd:3e:f8:40:f8:b6:96:85:0c:d3:8d:e8:93:1b:
        aa:3d:0b:ad:92:13:b5:34:66:56:36:c9:2b:96:57:fd:50:40:
        6c:3b:dd:d1:a8:f0:32:73:d5:79:cd:fc:e8:88:47:96:e2:c1:
        0a:3e:44:eb:30:bf:9c:c5:10:01:59:a4:55:7d:92:0d:fe:f2:
        ab:2d:a3:fd
-----BEGIN X509 CRL-----
MIIBoDCBiQIBATANBgkqhkiG9w0BAQUFADBHMRkwFwYDVQQDDBBMaWJvcGVheSB0
ZXN0IENBMQ4wDAYDVQQKDAVPcGVyYTENMAsGA1UECAwET3NsbzELMAkGA1UEBhMC
Tk8XDTEyMDMyMjA5MDY1M1oXDTIyMDMyMDA5MDY1M1qgDjAMMAoGA1UdFAQDAgEB
MA0GCSqGSIb3DQEBBQUAA4IBAQAhqph01h9SK9DvrDX6HNTiQOg4lV9AqwBkQxuK
R8TCt4Njl0IFBX9yEg9LAfcOfqVWtGRPLcjXw6rvQI0GDPjnRBmoSba03Vhw28xq
wgaWQ1XuDZPyzHf8zwjLsPAsYyR7sXotRgxGVLjvjoKT8f6x0y0WaVVMTQ5jVF8X
IDih61a09cR5Boflx2fXcQkc95M4X+WVLhdqeByylBAY5LJAuFSAOJONcZ77mi++
SJXB9oYTIH10x5kszT74QPi2loUM043okxuqPQutkhO1NGZWNskrllf9UEBsO93R
qPAyc9V5zfzoiEeW4sEKPkTrML+cxRABWaRVfZIN/vKrLaP9
-----END X509 CRL-----
