Certificate Revocation List (CRL):
        Version 2 (0x1)
        Signature Algorithm: sha1WithRSAEncryption
        Issuer: /CN=Libopeay test CA/O=Opera/ST=Oslo/C=NO
        Last Update: Mar 22 09:06:53 2012 GMT
        Next Update: Mar 20 09:06:53 2022 GMT
        CRL extensions:
            X509v3 CRL Number: 
                2
Revoked Certificates:
    Serial Number: 02
        Revocation Date: Mar 22 09:06:53 2012 GMT
    Signature Algorithm: sha1WithRSAEncryption
        50:92:f8:bf:87:4f:94:2f:56:a8:e5:36:ee:04:e3:e5:bd:e3:
        25:27:bd:95:ea:85:25:fd:ec:22:2f:f8:ed:aa:c4:45:2a:1c:
        e1:c1:97:7a:32:84:93:83:14:f3:6d:da:25:5a:f2:47:fa:17:
        47:44:20:3d:78:a0:f0:9c:29:28:5c:db:06:51:ad:9b:f3:9f:
        fb:e1:e9:6b:4d:db:7b:29:97:6b:41:5e:52:94:27:9a:52:57:
        a5:06:e6:ae:fe:7c:69:0c:4a:86:53:04:29:9c:24:c9:3b:22:
        27:3f:42:da:aa:f1:5e:29:5a:54:a5:54:34:b9:c8:9d:c1:fc:
        e9:08:37:e3:9a:ae:66:ce:33:0f:8d:64:3c:f0:8a:f3:44:7e:
        f0:5d:5a:05:ff:9c:36:0a:fd:12:4f:e0:78:38:58:73:2c:fa:
        07:d1:42:ae:7a:36:00:e4:03:49:cb:ba:07:29:85:37:f3:70:
        2e:21:f6:8e:8a:a6:ce:6a:18:0c:ee:71:c2:f3:fb:fb:86:6a:
        65:2e:ad:e3:04:25:c0:b0:c7:87:7e:c0:a3:1d:c4:4e:cd:c7:
        24:1c:79:32:4c:57:21:30:c7:1c:78:66:98:ea:1e:b8:d3:0a:
        bc:1b:1f:0a:e8:a3:74:b7:69:d1:32:f7:16:14:73:5b:34:29:
        f2:bc:a2:ba
-----BEGIN X509 CRL-----
MIIBtjCBnwIBATANBgkqhkiG9w0BAQUFADBHMRkwFwYDVQQDDBBMaWJvcGVheSB0
ZXN0IENBMQ4wDAYDVQQKDAVPcGVyYTENMAsGA1UECAwET3NsbzELMAkGA1UEBhMC
Tk8XDTEyMDMyMjA5MDY1M1oXDTIyMDMyMDA5MDY1M1owFDASAgECFw0xMjAzMjIw
OTA2NTNaoA4wDDAKBgNVHRQEAwIBAjANBgkqhkiG9w0BAQUFAAOCAQEAUJL4v4dP
lC9WqOU27gTj5b3jJSe9leqFJf3sIi/47arERSoc4cGXejKEk4MU823aJVryR/oX
R0QgPXig8JwpKFzbBlGtm/Of++Hpa03beymXa0FeUpQnmlJXpQbmrv58aQxKhlME
KZwkyTsiJz9C2qrxXilaVKVUNLnIncH86Qg345quZs4zD41kPPCK80R+8F1aBf+c
Ngr9Ek/geDhYcyz6B9FCrno2AOQDScu6BymFN/NwLiH2joqmzmoYDO5xwvP7+4Zq
ZS6t4wQlwLDHh37Aox3ETs3HJBx5MkxXITDHHHhmmOoeuNMKvBsfCuijdLdp0TL3
FhRzWzQp8ryiug==
-----END X509 CRL-----
