Certificate:
    Data:
        Version: 3 (0x2)
        Serial Number: 5 (0x5)
        Signature Algorithm: sha1WithRSAEncryption
        Issuer: C=NO, ST=Oslo, O=World Wide Web Consortium, OU=w3c-widgets-digsig-testsuite second level certificate, CN=http://www.w3.org//emailAddress=stuartk@opera.com
        Validity
            Not Before: Sep 24 09:37:58 2010 GMT
            Not After : Sep 19 09:37:58 2030 GMT
        Subject: C=NO, ST=Oslo, O=World Wide Web Consortium, OU=w3c-widgets-digsig-testsuite ecdsa certificate, CN=http://www.w3.org//emailAddress=stuartk@opera.com
        Subject Public Key Info:
            Public Key Algorithm: id-ecPublicKey
            EC Public Key:
                pub: 
                    04:a1:2d:98:c9:41:87:3a:9a:5f:dd:c5:a2:71:0b:
                    fa:86:cf:91:f3:3e:0e:8b:3c:55:87:c5:fc:26:7c:
                    25:bb:f0:ea:a6:93:3b:18:87:f5:83:f3:2c:17:d1:
                    20:2a:15:7e:b4:90:ea:17:85:2b:4a:f5:9d:e7:d3:
                    fa:14:e3:23:e6
                ASN1 OID: prime256v1
        X509v3 extensions:
            X509v3 Basic Constraints: 
                CA:FALSE
            Netscape Cert Type: 
                SSL Client, S/MIME, Object Signing
            X509v3 Key Usage: 
                Digital Signature, Non Repudiation, Key Encipherment
            Netscape Comment: 
                w3c-widgets-digsig-testsuite ecdsa certificate
            X509v3 Subject Key Identifier: 
                A7:F4:52:9D:EE:50:07:07:DC:46:31:29:EA:8B:A0:D6:E5:2A:C2:39
            X509v3 Authority Key Identifier: 
                keyid:0D:D0:6B:B4:C6:0B:9C:F7:F7:CD:A6:99:6E:E8:B4:92:8A:BF:CC:76
                DirName:/C=NO/ST=Oslo/L=Oslo/O=World Wide Web Consortium/OU=w3c-widgets-digsig-testsuite root certificate/CN=http://www.w3.org//emailAddress=stuartk@opera.com
                serial:01

    Signature Algorithm: sha1WithRSAEncryption
        aa:c3:c4:8b:57:2e:38:4d:51:f9:67:55:02:38:73:0e:4b:36:
        9f:23:83:4e:71:32:58:cb:c7:81:f0:b6:8d:36:4f:4d:39:74:
        6a:3f:73:7d:df:cc:93:e6:a8:b5:5b:89:ef:c3:0b:01:19:43:
        e5:b9:a4:31:78:8c:76:66:56:c6:d3:35:aa:1a:7b:6a:13:46:
        19:45:e4:12:4c:ef:f0:ce:ad:13:82:68:94:a3:e0:21:93:fc:
        98:2d:c0:18:0d:90:2a:de:3c:ee:1e:50:e7:e7:f2:88:2a:56:
        e1:63:38:89:56:51:85:75:8b:c3:01:27:56:f9:f0:dd:6a:99:
        9d:4f:e3:fb:b4:40:fc:63:c0:ca:46:04:0f:e3:eb:94:8c:29:
        0c:84:ca:6d:93:89:b2:f7:a5:14:99:e9:f6:62:7c:be:f6:f3:
        01:cf:32:28:4b:41:c8:07:7f:cc:79:19:5c:09:fd:59:82:0f:
        98:75:ca:db:26:cb:57:b8:94:fa:ba:86:da:3e:de:ec:20:87:
        4b:a5:b3:5f:1c:39:13:2a:bf:05:c2:ba:10:bd:72:56:f1:88:
        57:23:9b:b2:3c:10:e5:46:4b:73:5d:3e:4d:ba:8b:8b:ce:c2:
        eb:8d:fa:e8:ec:36:f2:5b:ef:c7:23:43:96:75:f6:52:cf:83:
        76:ea:df:ab
-----BEGIN CERTIFICATE-----
MIIErjCCA5agAwIBAgIBBTANBgkqhkiG9w0BAQUFADCBvzELMAkGA1UEBhMCTk8x
DTALBgNVBAgTBE9zbG8xIjAgBgNVBAoTGVdvcmxkIFdpZGUgV2ViIENvbnNvcnRp
dW0xPjA8BgNVBAsTNXczYy13aWRnZXRzLWRpZ3NpZy10ZXN0c3VpdGUgc2Vjb25k
IGxldmVsIGNlcnRpZmljYXRlMRswGQYDVQQDExJodHRwOi8vd3d3LnczLm9yZy8x
IDAeBgkqhkiG9w0BCQEWEXN0dWFydGtAb3BlcmEuY29tMB4XDTEwMDkyNDA5Mzc1
OFoXDTMwMDkxOTA5Mzc1OFowgbgxCzAJBgNVBAYTAk5PMQ0wCwYDVQQIEwRPc2xv
MSIwIAYDVQQKExlXb3JsZCBXaWRlIFdlYiBDb25zb3J0aXVtMTcwNQYDVQQLEy53
M2Mtd2lkZ2V0cy1kaWdzaWctdGVzdHN1aXRlIGVjZHNhIGNlcnRpZmljYXRlMRsw
GQYDVQQDExJodHRwOi8vd3d3LnczLm9yZy8xIDAeBgkqhkiG9w0BCQEWEXN0dWFy
dGtAb3BlcmEuY29tMFkwEwYHKoZIzj0CAQYIKoZIzj0DAQcDQgAEoS2YyUGHOppf
3cWicQv6hs+R8z4OizxVh8X8Jnwlu/DqppM7GIf1g/MsF9EgKhV+tJDqF4UrSvWd
59P6FOMj5qOCAYMwggF/MAkGA1UdEwQCMAAwEQYJYIZIAYb4QgEBBAQDAgSwMAsG
A1UdDwQEAwIF4DA9BglghkgBhvhCAQ0EMBYudzNjLXdpZGdldHMtZGlnc2lnLXRl
c3RzdWl0ZSBlY2RzYSBjZXJ0aWZpY2F0ZTAdBgNVHQ4EFgQUp/RSne5QBwfcRjEp
6oug1uUqwjkwgfMGA1UdIwSB6zCB6IAUDdBrtMYLnPf3zaaZbui0koq/zHahgcyk
gckwgcYxCzAJBgNVBAYTAk5PMQ0wCwYDVQQIEwRPc2xvMQ0wCwYDVQQHEwRPc2xv
MSIwIAYDVQQKExlXb3JsZCBXaWRlIFdlYiBDb25zb3J0aXVtMTYwNAYDVQQLEy13
M2Mtd2lkZ2V0cy1kaWdzaWctdGVzdHN1aXRlIHJvb3QgY2VydGlmaWNhdGUxGzAZ
BgNVBAMTEmh0dHA6Ly93d3cudzMub3JnLzEgMB4GCSqGSIb3DQEJARYRc3R1YXJ0
a0BvcGVyYS5jb22CAQEwDQYJKoZIhvcNAQEFBQADggEBAKrDxItXLjhNUflnVQI4
cw5LNp8jg05xMljLx4Hwto02T005dGo/c33fzJPmqLVbie/DCwEZQ+W5pDF4jHZm
VsbTNaoae2oTRhlF5BJM7/DOrROCaJSj4CGT/JgtwBgNkCrePO4eUOfn8ogqVuFj
OIlWUYV1i8MBJ1b58N1qmZ1P4/u0QPxjwMpGBA/j65SMKQyEym2TibL3pRSZ6fZi
fL728wHPMihLQcgHf8x5GVwJ/VmCD5h1ytsmy1e4lPq6hto+3uwgh0uls18cORMq
vwXCuhC9clbxiFcjm7I8EOVGS3NdPk26i4vOwuuN+ujsNvJb78cjQ5Z19lLPg3bq
36s=
-----END CERTIFICATE-----
