Certificate:
    Data:
        Version: 3 (0x2)
        Serial Number: 6 (0x6)
        Signature Algorithm: sha1WithRSAEncryption
        Issuer: C=NO, ST=Oslo, O=World Wide Web Consortium, OU=w3c-widgets-digsig-testsuite second level certificate, CN=http://www.w3.org//emailAddress=stuartk@opera.com
        Validity
            Not Before: Jun  7 07:16:22 2011 GMT
            Not After : Jun  2 07:16:22 2031 GMT
        Subject: C=NO, ST=Oslo, O=World Wide Web Consortium, OU=w3c-widgets-digsig-testsuite good sig and enc cert, CN=http://www.w3.org//emailAddress=stuartk@opera.com
        Subject Public Key Info:
            Public Key Algorithm: rsaEncryption
            RSA Public Key: (2048 bit)
                Modulus (2048 bit):
                    00:c1:20:c8:43:cd:3b:69:ff:71:d0:8e:1a:b4:f7:
                    1b:be:9a:0b:15:be:59:6d:50:ea:a5:ca:c6:89:8c:
                    0b:80:4b:18:ec:6d:7c:b8:d7:19:78:b8:cd:ed:f9:
                    61:8e:48:5b:1b:32:32:1e:55:2b:9f:dc:d1:66:22:
                    68:ad:c2:7c:61:45:00:a3:30:4c:1a:39:13:09:14:
                    3a:b5:3b:91:f6:56:4a:d1:66:79:44:ce:19:60:49:
                    99:71:5e:cb:46:b8:5b:46:55:23:7a:a5:01:b1:91:
                    0b:e6:8d:8f:ef:90:49:e2:5f:04:1e:28:44:c4:7a:
                    1a:88:3f:fc:94:de:de:40:c4:7a:63:45:e7:41:9b:
                    6a:41:16:c4:65:62:b4:ba:ec:9c:ce:d0:f5:92:41:
                    58:99:a6:f4:01:48:01:c7:72:fc:92:80:d5:c5:eb:
                    95:51:70:6a:b6:eb:07:39:b5:da:aa:c6:b8:0f:77:
                    a6:bd:75:fb:4d:68:ee:c1:9a:6d:7e:d3:ea:f8:ae:
                    e7:3d:f5:66:3b:d1:d1:08:58:02:7c:c8:21:4a:85:
                    60:49:3f:ca:43:8b:fc:38:97:f2:22:a7:a4:bf:a2:
                    8b:4f:80:b9:eb:e2:bd:65:fa:a7:01:2c:57:a3:aa:
                    91:47:e8:b5:da:b1:32:11:38:6d:ac:60:1d:b9:2a:
                    68:75
                Exponent: 65537 (0x10001)
        X509v3 extensions:
            X509v3 Basic Constraints: 
                CA:FALSE
            Netscape Cert Type: 
                SSL Client, S/MIME, Object Signing
            X509v3 Key Usage: 
                Digital Signature, Non Repudiation, Key Encipherment
            X509v3 Extended Key Usage: 
                TLS Web Server Authentication, TLS Web Client Authentication, Code Signing, E-mail Protection
            Netscape Comment: 
                w3c-widgets-digsig-testsuite good sig and enc cert
            X509v3 Subject Key Identifier: 
                02:C9:FA:C7:F4:4E:05:D0:C4:F9:B8:54:64:DF:C3:C4:8F:E5:70:76
            X509v3 Authority Key Identifier: 
                keyid:0D:D0:6B:B4:C6:0B:9C:F7:F7:CD:A6:99:6E:E8:B4:92:8A:BF:CC:76
                DirName:/C=NO/ST=Oslo/L=Oslo/O=World Wide Web Consortium/OU=w3c-widgets-digsig-testsuite root certificate/CN=http://www.w3.org//emailAddress=stuartk@opera.com
                serial:01

            Authority Information Access: 
                OCSP - URI:http://ocsp.t.oslo.osa:6277/

    Signature Algorithm: sha1WithRSAEncryption
        76:67:f7:1f:90:6d:2b:20:8e:c2:86:c0:fe:9f:2e:1c:7d:c7:
        a8:50:18:a6:81:72:08:d3:ee:d8:b6:4c:db:cf:d3:e8:13:4c:
        d2:58:15:42:38:5b:4d:8f:9c:36:04:35:38:f0:ac:fc:14:d8:
        9e:e9:bb:16:23:eb:86:d7:f3:1b:1f:3d:e4:fa:1a:58:d0:f2:
        11:1f:0f:ef:eb:5d:ea:28:ff:56:b0:f5:67:b9:ce:46:06:02:
        27:e8:81:ba:9c:de:09:23:8f:2d:ca:74:11:31:e5:f4:e4:59:
        26:6a:b2:b6:2b:72:9a:29:54:e6:64:4c:55:db:e8:90:32:ab:
        c0:35:2d:7b:90:3f:4b:4e:a1:65:0f:46:39:10:af:8b:de:8c:
        91:28:b6:91:a7:c0:c1:f1:09:2b:0a:04:a5:bc:da:9b:a5:47:
        dc:56:19:2c:b2:f0:0d:af:bf:c3:86:9e:3e:bc:be:fa:21:5f:
        11:0d:fc:d1:09:dc:1d:47:86:1f:a8:6e:b8:54:83:9e:71:61:
        6a:4b:65:42:d8:82:62:27:e3:86:9e:f6:7b:7a:81:4c:19:ec:
        93:b9:a4:69:7e:29:36:5f:31:ea:c2:a7:82:d2:06:f0:9a:0c:
        c1:6a:65:bf:bc:99:a8:33:44:ca:dc:d1:db:89:59:88:20:e4:
        d9:bf:69:1e
-----BEGIN CERTIFICATE-----
MIIF7jCCBNagAwIBAgIBBjANBgkqhkiG9w0BAQUFADCBvzELMAkGA1UEBhMCTk8x
DTALBgNVBAgTBE9zbG8xIjAgBgNVBAoTGVdvcmxkIFdpZGUgV2ViIENvbnNvcnRp
dW0xPjA8BgNVBAsTNXczYy13aWRnZXRzLWRpZ3NpZy10ZXN0c3VpdGUgc2Vjb25k
IGxldmVsIGNlcnRpZmljYXRlMRswGQYDVQQDExJodHRwOi8vd3d3LnczLm9yZy8x
IDAeBgkqhkiG9w0BCQEWEXN0dWFydGtAb3BlcmEuY29tMB4XDTExMDYwNzA3MTYy
MloXDTMxMDYwMjA3MTYyMlowgbwxCzAJBgNVBAYTAk5PMQ0wCwYDVQQIEwRPc2xv
MSIwIAYDVQQKExlXb3JsZCBXaWRlIFdlYiBDb25zb3J0aXVtMTswOQYDVQQLEzJ3
M2Mtd2lkZ2V0cy1kaWdzaWctdGVzdHN1aXRlIGdvb2Qgc2lnIGFuZCBlbmMgY2Vy
dDEbMBkGA1UEAxMSaHR0cDovL3d3dy53My5vcmcvMSAwHgYJKoZIhvcNAQkBFhFz
dHVhcnRrQG9wZXJhLmNvbTCCASIwDQYJKoZIhvcNAQEBBQADggEPADCCAQoCggEB
AMEgyEPNO2n/cdCOGrT3G76aCxW+WW1Q6qXKxomMC4BLGOxtfLjXGXi4ze35YY5I
WxsyMh5VK5/c0WYiaK3CfGFFAKMwTBo5EwkUOrU7kfZWStFmeUTOGWBJmXFey0a4
W0ZVI3qlAbGRC+aNj++QSeJfBB4oRMR6Gog//JTe3kDEemNF50GbakEWxGVitLrs
nM7Q9ZJBWJmm9AFIAcdy/JKA1cXrlVFwarbrBzm12qrGuA93pr11+01o7sGabX7T
6viu5z31ZjvR0QhYAnzIIUqFYEk/ykOL/DiX8iKnpL+ii0+AuevivWX6pwEsV6Oq
kUfotdqxMhE4baxgHbkqaHUCAwEAAaOCAfQwggHwMAkGA1UdEwQCMAAwEQYJYIZI
AYb4QgEBBAQDAgSwMAsGA1UdDwQEAwIF4DAxBgNVHSUEKjAoBggrBgEFBQcDAQYI
KwYBBQUHAwIGCCsGAQUFBwMDBggrBgEFBQcDBDBBBglghkgBhvhCAQ0ENBYydzNj
LXdpZGdldHMtZGlnc2lnLXRlc3RzdWl0ZSBnb29kIHNpZyBhbmQgZW5jIGNlcnQw
HQYDVR0OBBYEFALJ+sf0TgXQxPm4VGTfw8SP5XB2MIHzBgNVHSMEgeswgeiAFA3Q
a7TGC5z3982mmW7otJKKv8x2oYHMpIHJMIHGMQswCQYDVQQGEwJOTzENMAsGA1UE
CBMET3NsbzENMAsGA1UEBxMET3NsbzEiMCAGA1UEChMZV29ybGQgV2lkZSBXZWIg
Q29uc29ydGl1bTE2MDQGA1UECxMtdzNjLXdpZGdldHMtZGlnc2lnLXRlc3RzdWl0
ZSByb290IGNlcnRpZmljYXRlMRswGQYDVQQDExJodHRwOi8vd3d3LnczLm9yZy8x
IDAeBgkqhkiG9w0BCQEWEXN0dWFydGtAb3BlcmEuY29tggEBMDgGCCsGAQUFBwEB
BCwwKjAoBggrBgEFBQcwAYYcaHR0cDovL29jc3AudC5vc2xvLm9zYTo2Mjc3LzAN
BgkqhkiG9w0BAQUFAAOCAQEAdmf3H5BtKyCOwobA/p8uHH3HqFAYpoFyCNPu2LZM
28/T6BNM0lgVQjhbTY+cNgQ1OPCs/BTYnum7FiPrhtfzGx895PoaWNDyER8P7+td
6ij/VrD1Z7nORgYCJ+iBupzeCSOPLcp0ETHl9ORZJmqytitymilU5mRMVdvokDKr
wDUte5A/S06hZQ9GORCvi96MkSi2kafAwfEJKwoEpbzam6VH3FYZLLLwDa+/w4ae
Pry++iFfEQ380QncHUeGH6huuFSDnnFhaktlQtiCYifjhp72e3qBTBnsk7mkaX4p
Nl8x6sKngtIG8JoMwWplv7yZqDNEytzR24lZiCDk2b9pHg==
-----END CERTIFICATE-----
