Certificate:
    Data:
        Version: 3 (0x2)
        Serial Number: 1 (0x1)
        Signature Algorithm: sha1WithRSAEncryption
        Issuer: C=NO, ST=Oslo, L=Oslo, O=World Wide Web Consortium, OU=w3c-widgets-digsig-testsuite root certificate, CN=http://www.w3.org//emailAddress=stuartk@opera.com
        Validity
            Not Before: Sep 24 08:46:11 2010 GMT
            Not After : Sep 19 08:46:11 2030 GMT
        Subject: C=NO, ST=Oslo, O=World Wide Web Consortium, OU=w3c-widgets-digsig-testsuite second level certificate, CN=http://www.w3.org//emailAddress=stuartk@opera.com
        Subject Public Key Info:
            Public Key Algorithm: rsaEncryption
            RSA Public Key: (2048 bit)
                Modulus (2048 bit):
                    00:b3:f1:01:a1:cc:17:4c:0d:77:74:a8:b5:d8:ea:
                    31:2d:5a:e7:5e:00:04:39:25:1b:05:81:5d:dd:74:
                    77:94:e2:87:8c:0a:74:53:0c:15:ad:4e:2c:2e:f4:
                    d7:5a:67:e9:d0:3f:05:bd:8f:cd:22:1b:e0:90:63:
                    9d:c7:9c:d8:d0:5d:e4:7e:fb:18:ab:05:11:06:33:
                    8b:c8:bc:2c:ff:8f:da:a6:27:46:9c:a1:9e:9b:4b:
                    80:e1:38:03:15:c2:59:3d:03:2d:d4:71:99:4c:56:
                    37:44:1c:4a:c5:48:24:35:d9:25:ed:69:7d:35:3b:
                    ad:19:87:b0:84:53:e3:ea:eb:32:98:ae:ee:bf:09:
                    da:23:a7:e7:43:f8:b2:99:2b:10:24:7e:c3:37:69:
                    94:f0:f0:25:59:9b:f4:08:f2:46:8d:0c:57:f1:ec:
                    e2:86:55:f7:00:4c:04:6a:e9:65:36:1d:3d:fd:89:
                    ca:cd:80:2d:ca:7f:1b:f1:da:f7:ef:e9:30:3b:bf:
                    e8:cd:71:db:d1:bb:af:26:22:a5:85:44:64:fa:44:
                    a8:47:03:a1:cb:21:dd:ba:05:e5:e8:69:33:64:fa:
                    cb:7e:72:3e:e7:4e:60:9d:ba:68:52:e5:e5:76:9c:
                    1e:fb:1b:93:f6:d3:b1:c8:61:59:f8:53:73:04:f7:
                    13:7f
                Exponent: 65537 (0x10001)
        X509v3 extensions:
            X509v3 Basic Constraints: 
                CA:TRUE
            X509v3 Subject Key Identifier: 
                0D:D0:6B:B4:C6:0B:9C:F7:F7:CD:A6:99:6E:E8:B4:92:8A:BF:CC:76
            X509v3 Authority Key Identifier: 
                keyid:F2:D3:F2:B0:E9:98:07:B5:9E:A8:57:D9:11:AA:F4:57:B8:EA:47:B8
                DirName:/C=NO/ST=Oslo/L=Oslo/O=World Wide Web Consortium/OU=w3c-widgets-digsig-testsuite root certificate/CN=http://www.w3.org//emailAddress=stuartk@opera.com
                serial:C4:EA:14:FF:D6:6B:CB:80

            Netscape Comment: 
                w3c-widgets-digsig-testsuite second level certificate
    Signature Algorithm: sha1WithRSAEncryption
        89:7c:56:ff:4f:21:39:fe:36:3d:ab:0e:3d:29:03:6c:06:91:
        f7:50:e7:d4:9c:05:48:21:2f:a2:b7:69:ed:13:3d:1c:dd:22:
        a2:08:e6:92:43:cb:5c:99:f6:68:b8:28:95:64:28:87:80:b6:
        db:b2:45:03:d4:be:74:73:bc:42:38:b2:69:53:07:73:1c:e2:
        20:39:df:af:7f:9b:a4:6d:d4:46:92:66:d5:6e:53:e8:f2:68:
        8f:4b:ec:07:9d:62:50:da:70:18:1e:f9:7e:bd:98:b7:cb:86:
        c6:e7:ec:14:90:e7:fd:1b:3b:f2:41:a4:79:79:80:10:a2:e7:
        a0:66:fb:40:2a:c3:19:c9:a2:10:aa:2a:b1:6b:e4:83:75:a2:
        61:fa:0a:ef:97:20:b3:96:c6:ef:15:64:b3:b1:a0:4a:86:c2:
        a2:11:ea:98:91:3d:ea:fd:84:62:8b:8c:6a:b1:e7:35:45:48:
        be:7d:f0:d8:71:b1:b4:e8:90:8f:82:4f:f4:ad:a7:14:5c:77:
        83:16:dd:80:c1:97:b0:dc:84:32:1e:4a:96:cf:47:d2:d4:2d:
        e9:02:8b:31:97:75:db:b2:b9:ef:59:3e:7c:95:7a:99:05:2d:
        4f:03:9b:f2:37:1e:70:5a:bc:3c:f8:7f:56:f3:5f:e5:c5:22:
        d6:6e:4f:ff
-----BEGIN CERTIFICATE-----
MIIFeTCCBGGgAwIBAgIBATANBgkqhkiG9w0BAQUFADCBxjELMAkGA1UEBhMCTk8x
DTALBgNVBAgTBE9zbG8xDTALBgNVBAcTBE9zbG8xIjAgBgNVBAoTGVdvcmxkIFdp
ZGUgV2ViIENvbnNvcnRpdW0xNjA0BgNVBAsTLXczYy13aWRnZXRzLWRpZ3NpZy10
ZXN0c3VpdGUgcm9vdCBjZXJ0aWZpY2F0ZTEbMBkGA1UEAxMSaHR0cDovL3d3dy53
My5vcmcvMSAwHgYJKoZIhvcNAQkBFhFzdHVhcnRrQG9wZXJhLmNvbTAeFw0xMDA5
MjQwODQ2MTFaFw0zMDA5MTkwODQ2MTFaMIG/MQswCQYDVQQGEwJOTzENMAsGA1UE
CBMET3NsbzEiMCAGA1UEChMZV29ybGQgV2lkZSBXZWIgQ29uc29ydGl1bTE+MDwG
A1UECxM1dzNjLXdpZGdldHMtZGlnc2lnLXRlc3RzdWl0ZSBzZWNvbmQgbGV2ZWwg
Y2VydGlmaWNhdGUxGzAZBgNVBAMTEmh0dHA6Ly93d3cudzMub3JnLzEgMB4GCSqG
SIb3DQEJARYRc3R1YXJ0a0BvcGVyYS5jb20wggEiMA0GCSqGSIb3DQEBAQUAA4IB
DwAwggEKAoIBAQCz8QGhzBdMDXd0qLXY6jEtWudeAAQ5JRsFgV3ddHeU4oeMCnRT
DBWtTiwu9NdaZ+nQPwW9j80iG+CQY53HnNjQXeR++xirBREGM4vIvCz/j9qmJ0ac
oZ6bS4DhOAMVwlk9Ay3UcZlMVjdEHErFSCQ12SXtaX01O60Zh7CEU+Pq6zKYru6/
Cdojp+dD+LKZKxAkfsM3aZTw8CVZm/QI8kaNDFfx7OKGVfcATARq6WU2HT39icrN
gC3Kfxvx2vfv6TA7v+jNcdvRu68mIqWFRGT6RKhHA6HLId26BeXoaTNk+st+cj7n
TmCdumhS5eV2nB77G5P207HIYVn4U3ME9xN/AgMBAAGjggF1MIIBcTAMBgNVHRME
BTADAQH/MB0GA1UdDgQWBBQN0Gu0xguc9/fNpplu6LSSir/MdjCB+wYDVR0jBIHz
MIHwgBTy0/Kw6ZgHtZ6oV9kRqvRXuOpHuKGBzKSByTCBxjELMAkGA1UEBhMCTk8x
DTALBgNVBAgTBE9zbG8xDTALBgNVBAcTBE9zbG8xIjAgBgNVBAoTGVdvcmxkIFdp
ZGUgV2ViIENvbnNvcnRpdW0xNjA0BgNVBAsTLXczYy13aWRnZXRzLWRpZ3NpZy10
ZXN0c3VpdGUgcm9vdCBjZXJ0aWZpY2F0ZTEbMBkGA1UEAxMSaHR0cDovL3d3dy53
My5vcmcvMSAwHgYJKoZIhvcNAQkBFhFzdHVhcnRrQG9wZXJhLmNvbYIJAMTqFP/W
a8uAMEQGCWCGSAGG+EIBDQQ3FjV3M2Mtd2lkZ2V0cy1kaWdzaWctdGVzdHN1aXRl
IHNlY29uZCBsZXZlbCBjZXJ0aWZpY2F0ZTANBgkqhkiG9w0BAQUFAAOCAQEAiXxW
/08hOf42PasOPSkDbAaR91Dn1JwFSCEvordp7RM9HN0iogjmkkPLXJn2aLgolWQo
h4C227JFA9S+dHO8QjiyaVMHcxziIDnfr3+bpG3URpJm1W5T6PJoj0vsB51iUNpw
GB75fr2Yt8uGxufsFJDn/Rs78kGkeXmAEKLnoGb7QCrDGcmiEKoqsWvkg3WiYfoK
75cgs5bG7xVks7GgSobCohHqmJE96v2EYouMarHnNUVIvn3w2HGxtOiQj4JP9K2n
FFx3gxbdgMGXsNyEMh5Kls9H0tQt6QKLMZd127K571k+fJV6mQUtTwOb8jcecFq8
PPh/VvNf5cUi1m5P/w==
-----END CERTIFICATE-----
