Certificate:
    Data:
        Version: 3 (0x2)
        Serial Number: 3 (0x3)
        Signature Algorithm: sha1WithRSAEncryption
        Issuer: C=NO, ST=Oslo, O=World Wide Web Consortium, OU=w3c-widgets-digsig-testsuite second level certificate, CN=http://www.w3.org//emailAddress=stuartk@opera.com
        Validity
            Not Before: Sep 24 08:46:17 2010 GMT
            Not After : Sep 19 08:46:17 2030 GMT
        Subject: C=NO, ST=Oslo, O=World Wide Web Consortium, OU=w3c-widgets-digsig-testsuite dsa certificate, CN=http://www.w3.org//emailAddress=stuartk@opera.com
        Subject Public Key Info:
            Public Key Algorithm: dsaEncryption
            DSA Public Key:
                pub: 
                    03:78:76:99:da:be:59:36:79:08:5c:d6:ef:d7:bd:
                    a6:d2:3a:9e:e0:44:f4:e3:f4:ad:92:b0:38:a7:59:
                    26:a2:68:0a:2d:37:5f:82:56:56:b7:81:d9:73:2c:
                    42:7c:24:26:4a:9a:5d:14:a0:ae:51:ce:4e:dd:6a:
                    cf:99:07:5a:c7:4c:e1:1e:a6:b5:d5:72:1c:50:39:
                    39:0a:70:a1:91:c8:cf:d6:3d:3e:71:a8:2f:57:d6:
                    75:17:36:54:45:5b:d9:d1:60:dd:28:b3:c7:94:29:
                    74:c3:9f:75:13:4b:40:cd:ab:42:64:61:ae:06:98:
                    6a:4a:5e:aa:b0:d2:f0:68:23:8c:7d:70:7b:77:5e:
                    21:12:70:3c:6a:8e:b1:69:93:96:0d:9b:47:7b:90:
                    f2:8f:91:38:5e:a2:5f:c8:8e:ff:6d:a2:e0:88:54:
                    f1:14:dd:e4:63:e1:70:fe:cc:14:07:c9:8b:3b:de:
                    69:90:b3:7f:37:0a:50:a7:d5:58:84:0a:83:cb:9f:
                    c5:b2:c6:83:6f:94:99:03:55:c0:1c:32:69:ab:d9:
                    b0:27:58:7e:2d:c7:f2:02:0b:4e:11:15:f4:78:ac:
                    d7:c8:4a:07:1e:e1:1c:13:3b:1c:4f:2b:9a:34:9b:
                    f8:fd:d2:6c:40:9c:cd:77:80:3d:c8:8a:a8:ae:eb:
                    8a
                P:   
                    00:a2:84:cf:74:24:5a:bf:1d:c1:af:1a:73:29:95:
                    51:c1:53:68:4a:e2:1b:db:c4:f6:29:5d:e9:92:42:
                    8e:f8:9f:ef:4d:0f:6b:85:a2:1a:d4:af:60:6b:d6:
                    56:da:db:b7:4c:b2:1f:05:27:de:99:e4:27:86:fd:
                    e5:0d:6c:38:81:1d:1a:00:e2:34:ce:35:8f:f2:8a:
                    46:4f:eb:2f:49:1d:48:22:7b:ce:05:9d:4e:38:14:
                    d1:ae:7f:d8:d7:fa:17:ba:4a:b4:46:33:61:73:85:
                    b2:85:9a:40:9c:be:2c:e1:4b:26:75:36:8e:ba:af:
                    e0:c9:88:0b:87:85:57:73:6a:83:79:f7:30:1c:ed:
                    3f:15:09:57:5a:da:a2:95:3b:b1:2a:84:19:be:86:
                    22:ed:4d:af:cf:79:a6:d6:de:39:3a:db:c2:a2:b2:
                    4b:cb:d2:54:13:eb:ff:a7:9e:e9:da:1f:bd:32:99:
                    4e:39:9d:2b:90:4c:08:b4:67:1b:d8:50:2f:58:19:
                    e1:54:9a:b6:46:21:df:96:6b:f4:57:79:73:b1:d0:
                    34:df:bf:d6:74:e7:93:4f:c2:5c:c6:88:ca:b5:a9:
                    7c:34:c3:8a:99:2f:58:6c:32:8d:31:ee:a8:20:7b:
                    2e:6b:9c:be:40:70:89:48:03:f5:68:02:ee:d2:a9:
                    98:f1
                Q:   
                    00:fa:ea:b7:46:21:72:52:bf:81:94:4b:6f:b3:50:
                    f3:c2:b3:45:ac:85
                G:   
                    03:ef:c8:58:48:52:c2:71:7a:70:a6:59:ab:64:06:
                    25:5b:6c:13:5e:58:33:ec:f4:4f:4d:90:12:d8:49:
                    97:66:43:9c:ea:91:91:b1:dd:b2:bb:d2:25:ba:da:
                    64:0b:cd:fc:26:4f:a5:71:22:3e:d7:d7:df:13:34:
                    bd:67:f1:a7:ff:5b:59:b2:93:4d:53:6c:00:d6:e1:
                    3e:cb:3b:74:a3:80:0a:3b:98:81:63:c8:d8:00:aa:
                    77:9e:da:b4:44:03:5d:2c:69:cd:ea:ec:b5:e0:de:
                    73:51:15:6b:62:0f:b3:f4:68:58:e5:e2:57:02:dd:
                    22:04:6a:e4:99:93:3f:50:ef:d9:c3:45:ed:4a:c3:
                    1e:15:94:fa:1d:4a:4f:cb:82:b2:e0:74:0f:14:59:
                    9a:2b:64:ca:4d:69:09:d7:f8:8b:de:2f:94:0c:91:
                    05:5b:e8:9c:2d:11:6a:f7:83:d6:c7:7d:bd:6e:49:
                    8b:39:9b:ed:a3:55:65:19:78:2d:99:47:b8:44:f4:
                    d6:06:e6:62:4c:97:9e:b4:87:9a:60:66:c1:71:7d:
                    74:35:ae:ff:9f:4e:e7:ae:ba:40:16:f6:51:c5:b1:
                    20:55:65:a0:5a:f2:6c:d6:0c:5a:a5:c3:f0:9b:0f:
                    49:52:5c:14:7a:39:33:f8:9f:60:50:b7:e6:bc:6e:
                    ff
        X509v3 extensions:
            X509v3 Basic Constraints: 
                CA:FALSE
            Netscape Cert Type: 
                SSL Client, S/MIME, Object Signing
            X509v3 Key Usage: 
                Digital Signature, Non Repudiation, Key Encipherment
            Netscape Comment: 
                w3c-widgets-digsig-testsuite dsa certificate
            X509v3 Subject Key Identifier: 
                A8:53:76:1B:B1:61:AF:F6:06:88:12:3F:41:80:9A:EF:C9:1B:4D:2B
            X509v3 Authority Key Identifier: 
                keyid:0D:D0:6B:B4:C6:0B:9C:F7:F7:CD:A6:99:6E:E8:B4:92:8A:BF:CC:76
                DirName:/C=NO/ST=Oslo/L=Oslo/O=World Wide Web Consortium/OU=w3c-widgets-digsig-testsuite root certificate/CN=http://www.w3.org//emailAddress=stuartk@opera.com
                serial:01

    Signature Algorithm: sha1WithRSAEncryption
        2c:be:44:8a:f4:bd:91:d7:dc:07:53:c3:f7:87:9b:4e:31:e8:
        06:5a:c5:60:de:cc:41:5c:de:8a:3c:4a:6d:d3:a1:e5:94:b6:
        be:41:47:69:5c:23:34:be:54:3e:15:02:c0:56:54:80:97:d4:
        8b:75:c3:a1:cf:43:3a:31:39:0c:d5:c3:2b:12:53:4a:60:f5:
        55:2c:7e:73:a4:fc:53:91:27:6c:43:68:bf:e8:8b:ac:33:e3:
        55:d4:31:c9:fe:95:79:07:04:a1:72:65:91:3c:78:8c:a0:84:
        8f:71:0b:46:e1:66:07:b4:35:e7:fb:a9:11:f0:5f:05:27:fa:
        42:e3:03:14:59:e5:94:0e:f2:74:2e:56:84:2a:bb:89:37:21:
        2a:36:95:e3:37:b7:5c:06:cc:80:0b:0e:17:38:e6:c1:2e:be:
        29:2e:b7:70:de:fd:ac:5a:98:94:7e:0d:76:15:ad:6b:30:fe:
        d9:57:73:4d:58:95:13:c9:c5:51:a9:ff:ff:2f:2a:f7:b3:7a:
        e4:8f:ec:48:00:b9:e3:b6:c7:37:77:8b:52:07:a9:1b:b9:81:
        f5:b0:5d:97:67:93:6b:35:3f:f4:ed:c3:ea:e4:7d:20:58:6e:
        30:b6:17:b9:63:59:e7:14:df:52:89:2e:c7:4e:29:41:04:24:
        9f:80:3c:0f
-----BEGIN CERTIFICATE-----
MIIHjTCCBnWgAwIBAgIBAzANBgkqhkiG9w0BAQUFADCBvzELMAkGA1UEBhMCTk8x
DTALBgNVBAgTBE9zbG8xIjAgBgNVBAoTGVdvcmxkIFdpZGUgV2ViIENvbnNvcnRp
dW0xPjA8BgNVBAsTNXczYy13aWRnZXRzLWRpZ3NpZy10ZXN0c3VpdGUgc2Vjb25k
IGxldmVsIGNlcnRpZmljYXRlMRswGQYDVQQDExJodHRwOi8vd3d3LnczLm9yZy8x
IDAeBgkqhkiG9w0BCQEWEXN0dWFydGtAb3BlcmEuY29tMB4XDTEwMDkyNDA4NDYx
N1oXDTMwMDkxOTA4NDYxN1owgbYxCzAJBgNVBAYTAk5PMQ0wCwYDVQQIEwRPc2xv
MSIwIAYDVQQKExlXb3JsZCBXaWRlIFdlYiBDb25zb3J0aXVtMTUwMwYDVQQLEyx3
M2Mtd2lkZ2V0cy1kaWdzaWctdGVzdHN1aXRlIGRzYSBjZXJ0aWZpY2F0ZTEbMBkG
A1UEAxMSaHR0cDovL3d3dy53My5vcmcvMSAwHgYJKoZIhvcNAQkBFhFzdHVhcnRr
QG9wZXJhLmNvbTCCAzowggItBgcqhkjOOAQBMIICIAKCAQEAooTPdCRavx3Brxpz
KZVRwVNoSuIb28T2KV3pkkKO+J/vTQ9rhaIa1K9ga9ZW2tu3TLIfBSfemeQnhv3l
DWw4gR0aAOI0zjWP8opGT+svSR1IInvOBZ1OOBTRrn/Y1/oXukq0RjNhc4WyhZpA
nL4s4UsmdTaOuq/gyYgLh4VXc2qDefcwHO0/FQlXWtqilTuxKoQZvoYi7U2vz3mm
1t45OtvCorJLy9JUE+v/p57p2h+9MplOOZ0rkEwItGcb2FAvWBnhVJq2RiHflmv0
V3lzsdA037/WdOeTT8JcxojKtal8NMOKmS9YbDKNMe6oIHsua5y+QHCJSAP1aALu
0qmY8QIVAPrqt0YhclK/gZRLb7NQ88KzRayFAoIBAAPvyFhIUsJxenCmWatkBiVb
bBNeWDPs9E9NkBLYSZdmQ5zqkZGx3bK70iW62mQLzfwmT6VxIj7X198TNL1n8af/
W1myk01TbADW4T7LO3SjgAo7mIFjyNgAqnee2rREA10sac3q7LXg3nNRFWtiD7P0
aFjl4lcC3SIEauSZkz9Q79nDRe1Kwx4VlPodSk/LgrLgdA8UWZorZMpNaQnX+Ive
L5QMkQVb6JwtEWr3g9bHfb1uSYs5m+2jVWUZeC2ZR7hE9NYG5mJMl560h5pgZsFx
fXQ1rv+fTueuukAW9lHFsSBVZaBa8mzWDFqlw/CbD0lSXBR6OTP4n2BQt+a8bv8D
ggEFAAKCAQADeHaZ2r5ZNnkIXNbv172m0jqe4ET04/StkrA4p1kmomgKLTdfglZW
t4HZcyxCfCQmSppdFKCuUc5O3WrPmQdax0zhHqa11XIcUDk5CnChkcjP1j0+cagv
V9Z1FzZURVvZ0WDdKLPHlCl0w591E0tAzatCZGGuBphqSl6qsNLwaCOMfXB7d14h
EnA8ao6xaZOWDZtHe5Dyj5E4XqJfyI7/baLgiFTxFN3kY+Fw/swUB8mLO95pkLN/
NwpQp9VYhAqDy5/FssaDb5SZA1XAHDJpq9mwJ1h+LcfyAgtOERX0eKzXyEoHHuEc
EzscTyuaNJv4/dJsQJzNd4A9yIqoruuKo4IBgTCCAX0wCQYDVR0TBAIwADARBglg
hkgBhvhCAQEEBAMCBLAwCwYDVR0PBAQDAgXgMDsGCWCGSAGG+EIBDQQuFix3M2Mt
d2lkZ2V0cy1kaWdzaWctdGVzdHN1aXRlIGRzYSBjZXJ0aWZpY2F0ZTAdBgNVHQ4E
FgQUqFN2G7Fhr/YGiBI/QYCa78kbTSswgfMGA1UdIwSB6zCB6IAUDdBrtMYLnPf3
zaaZbui0koq/zHahgcykgckwgcYxCzAJBgNVBAYTAk5PMQ0wCwYDVQQIEwRPc2xv
MQ0wCwYDVQQHEwRPc2xvMSIwIAYDVQQKExlXb3JsZCBXaWRlIFdlYiBDb25zb3J0
aXVtMTYwNAYDVQQLEy13M2Mtd2lkZ2V0cy1kaWdzaWctdGVzdHN1aXRlIHJvb3Qg
Y2VydGlmaWNhdGUxGzAZBgNVBAMTEmh0dHA6Ly93d3cudzMub3JnLzEgMB4GCSqG
SIb3DQEJARYRc3R1YXJ0a0BvcGVyYS5jb22CAQEwDQYJKoZIhvcNAQEFBQADggEB
ACy+RIr0vZHX3AdTw/eHm04x6AZaxWDezEFc3oo8Sm3ToeWUtr5BR2lcIzS+VD4V
AsBWVICX1It1w6HPQzoxOQzVwysSU0pg9VUsfnOk/FORJ2xDaL/oi6wz41XUMcn+
lXkHBKFyZZE8eIyghI9xC0bhZge0Nef7qRHwXwUn+kLjAxRZ5ZQO8nQuVoQqu4k3
ISo2leM3t1wGzIALDhc45sEuvikut3De/axamJR+DXYVrWsw/tlXc01YlRPJxVGp
//8vKvezeuSP7EgAueO2xzd3i1IHqRu5gfWwXZdnk2s1P/Ttw+rkfSBYbjC2F7lj
WecU31KJLsdOKUEEJJ+APA8=
-----END CERTIFICATE-----
