Certificate:
    Data:
        Version: 3 (0x2)
        Serial Number: 10 (0xa)
        Signature Algorithm: sha1WithRSAEncryption
        Issuer: C=NO, ST=Oslo, O=World Wide Web Consortium, OU=w3c-widgets-digsig-testsuite second level certificate, CN=http://www.w3.org//emailAddress=stuartk@opera.com
        Validity
            Not Before: Apr 13 12:14:12 2011 GMT
            Not After : Apr  8 12:14:12 2031 GMT
        Subject: C=NO, ST=Oslo, O=World Wide Web Consortium, OU=CORE-37840-bad-CRL-check, CN=sadrabinski.wroclaw.osa/emailAddress=sadrabinski@opera.com
        Subject Public Key Info:
            Public Key Algorithm: rsaEncryption
            RSA Public Key: (2048 bit)
                Modulus (2048 bit):
                    00:a9:a4:8c:e1:f0:1c:1b:4d:28:87:5a:01:45:3f:
                    bd:2a:5a:76:c7:00:85:13:fc:96:61:cb:2c:bc:e1:
                    f0:27:b3:63:b2:0d:f2:88:7d:7a:f1:63:21:c0:f7:
                    10:93:98:77:c7:4a:40:40:77:fa:be:0b:ff:de:ea:
                    08:75:64:69:eb:7f:5a:5d:08:1f:22:60:a3:7c:f2:
                    4b:85:8b:0d:46:78:30:ef:ff:4f:29:15:71:f9:8f:
                    14:d8:17:59:29:c4:ea:a1:3c:f4:7d:de:a0:c9:f4:
                    80:76:12:80:43:51:de:7b:ed:a6:74:c2:50:c0:d3:
                    28:4f:3a:28:01:28:3c:bd:bd:06:be:45:89:d7:9d:
                    24:cc:c8:ca:a2:32:95:64:94:b0:0b:c6:a4:62:d1:
                    70:96:6d:11:f5:aa:a9:90:a5:90:3e:a5:69:a0:f2:
                    04:28:8d:6d:b8:62:55:99:e6:8b:c9:77:77:4e:73:
                    b6:bb:ba:a1:44:a3:83:a8:5f:f1:9c:dc:de:b0:bf:
                    bc:37:20:3e:5e:5c:fb:f6:9c:e5:41:b6:83:41:cc:
                    5b:4b:91:c3:f6:b1:59:7c:96:25:06:39:27:39:03:
                    a0:23:0c:25:c1:41:0d:55:30:d6:73:fc:e5:4f:bf:
                    ad:71:cd:d7:d4:73:8e:98:c8:82:fc:3e:4b:6b:78:
                    05:b3
                Exponent: 65537 (0x10001)
        X509v3 extensions:
            X509v3 Basic Constraints: 
                CA:FALSE
            Netscape Cert Type: 
                SSL Client, S/MIME, Object Signing
            X509v3 Key Usage: 
                Digital Signature, Non Repudiation, Key Encipherment
            X509v3 Extended Key Usage: 
                TLS Web Server Authentication, TLS Web Client Authentication, Code Signing, E-mail Protection
            Netscape Comment: 
                CORE-37840-bad-CRL-check
            X509v3 Subject Key Identifier: 
                3C:D6:37:65:E9:ED:C7:16:23:4F:C5:CB:8D:28:9E:D0:E6:18:BB:6A
            X509v3 Authority Key Identifier: 
                keyid:0D:D0:6B:B4:C6:0B:9C:F7:F7:CD:A6:99:6E:E8:B4:92:8A:BF:CC:76
                DirName:/C=NO/ST=Oslo/L=Oslo/O=World Wide Web Consortium/OU=w3c-widgets-digsig-testsuite root certificate/CN=http://www.w3.org//emailAddress=stuartk@opera.com
                serial:01

            X509v3 CRL Distribution Points: 
                URI:http://sadrabinski.wroclaw.osa:2275/multicert-ca-02.crl

    Signature Algorithm: sha1WithRSAEncryption
        a8:59:89:98:fe:40:dc:23:ca:4e:e2:7c:4f:dc:75:01:27:cd:
        77:5d:32:df:c1:b1:de:1d:0f:9c:b7:d7:b9:bb:d2:9e:a5:a5:
        fc:ee:c6:9a:ac:75:e0:97:b6:00:92:ab:a0:1d:4b:d0:92:92:
        9e:6e:02:32:cf:36:51:5f:4c:f6:61:b5:47:4d:2a:55:bf:f8:
        ca:e4:29:02:b7:75:b6:5a:85:5c:14:6e:f4:bd:e8:1d:5d:c5:
        6a:ef:f6:7d:58:72:80:d8:21:d3:fd:7d:48:c0:59:b7:85:25:
        42:19:af:af:50:47:5c:68:f8:5a:b8:29:66:93:a2:5d:b8:bd:
        ce:3f:f8:0f:c8:fb:64:b8:75:0b:60:e2:33:24:ce:8f:72:b0:
        ed:cc:77:ca:39:be:7d:fe:57:c3:8c:27:ff:9f:40:ef:b0:75:
        db:3c:f4:d8:d8:c2:06:a8:d8:d7:b3:82:51:9c:12:f6:7f:f1:
        83:44:68:91:2d:3c:20:a2:84:11:14:9e:38:fa:ee:62:79:ba:
        9d:7e:4f:df:4d:0b:51:51:27:39:e0:48:95:40:75:8b:5b:f0:
        91:ee:d2:f2:76:e2:48:23:ee:6a:c4:43:f8:9b:e8:74:5b:f8:
        e5:40:18:38:d5:ed:6d:e0:44:c3:ff:ec:84:4a:b9:c7:eb:0a:
        29:b7:14:23
-----BEGIN CERTIFICATE-----
MIIF0zCCBLugAwIBAgIBCjANBgkqhkiG9w0BAQUFADCBvzELMAkGA1UEBhMCTk8x
DTALBgNVBAgTBE9zbG8xIjAgBgNVBAoTGVdvcmxkIFdpZGUgV2ViIENvbnNvcnRp
dW0xPjA8BgNVBAsTNXczYy13aWRnZXRzLWRpZ3NpZy10ZXN0c3VpdGUgc2Vjb25k
IGxldmVsIGNlcnRpZmljYXRlMRswGQYDVQQDExJodHRwOi8vd3d3LnczLm9yZy8x
IDAeBgkqhkiG9w0BCQEWEXN0dWFydGtAb3BlcmEuY29tMB4XDTExMDQxMzEyMTQx
MloXDTMxMDQwODEyMTQxMlowgasxCzAJBgNVBAYTAk5PMQ0wCwYDVQQIEwRPc2xv
MSIwIAYDVQQKExlXb3JsZCBXaWRlIFdlYiBDb25zb3J0aXVtMSEwHwYDVQQLExhD
T1JFLTM3ODQwLWJhZC1DUkwtY2hlY2sxIDAeBgNVBAMTF3NhZHJhYmluc2tpLndy
b2NsYXcub3NhMSQwIgYJKoZIhvcNAQkBFhVzYWRyYWJpbnNraUBvcGVyYS5jb20w
ggEiMA0GCSqGSIb3DQEBAQUAA4IBDwAwggEKAoIBAQCppIzh8BwbTSiHWgFFP70q
WnbHAIUT/JZhyyy84fAns2OyDfKIfXrxYyHA9xCTmHfHSkBAd/q+C//e6gh1ZGnr
f1pdCB8iYKN88kuFiw1GeDDv/08pFXH5jxTYF1kpxOqhPPR93qDJ9IB2EoBDUd57
7aZ0wlDA0yhPOigBKDy9vQa+RYnXnSTMyMqiMpVklLALxqRi0XCWbRH1qqmQpZA+
pWmg8gQojW24YlWZ5ovJd3dOc7a7uqFEo4OoX/Gc3N6wv7w3ID5eXPv2nOVBtoNB
zFtLkcP2sVl8liUGOSc5A6AjDCXBQQ1VMNZz/OVPv61xzdfUc46YyIL8PktreAWz
AgMBAAGjggHqMIIB5jAJBgNVHRMEAjAAMBEGCWCGSAGG+EIBAQQEAwIEsDALBgNV
HQ8EBAMCBeAwMQYDVR0lBCowKAYIKwYBBQUHAwEGCCsGAQUFBwMCBggrBgEFBQcD
AwYIKwYBBQUHAwQwJwYJYIZIAYb4QgENBBoWGENPUkUtMzc4NDAtYmFkLUNSTC1j
aGVjazAdBgNVHQ4EFgQUPNY3ZentxxYjT8XLjSie0OYYu2owgfMGA1UdIwSB6zCB
6IAUDdBrtMYLnPf3zaaZbui0koq/zHahgcykgckwgcYxCzAJBgNVBAYTAk5PMQ0w
CwYDVQQIEwRPc2xvMQ0wCwYDVQQHEwRPc2xvMSIwIAYDVQQKExlXb3JsZCBXaWRl
IFdlYiBDb25zb3J0aXVtMTYwNAYDVQQLEy13M2Mtd2lkZ2V0cy1kaWdzaWctdGVz
dHN1aXRlIHJvb3QgY2VydGlmaWNhdGUxGzAZBgNVBAMTEmh0dHA6Ly93d3cudzMu
b3JnLzEgMB4GCSqGSIb3DQEJARYRc3R1YXJ0a0BvcGVyYS5jb22CAQEwSAYDVR0f
BEEwPzA9oDugOYY3aHR0cDovL3NhZHJhYmluc2tpLndyb2NsYXcub3NhOjIyNzUv
bXVsdGljZXJ0LWNhLTAyLmNybDANBgkqhkiG9w0BAQUFAAOCAQEAqFmJmP5A3CPK
TuJ8T9x1ASfNd10y38Gx3h0PnLfXubvSnqWl/O7Gmqx14Je2AJKroB1L0JKSnm4C
Ms82UV9M9mG1R00qVb/4yuQpArd1tlqFXBRu9L3oHV3Fau/2fVhygNgh0/19SMBZ
t4UlQhmvr1BHXGj4WrgpZpOiXbi9zj/4D8j7ZLh1C2DiMyTOj3Kw7cx3yjm+ff5X
w4wn/59A77B12zz02NjCBqjY17OCUZwS9n/xg0RokS08IKKEERSeOPruYnm6nX5P
300LUVEnOeBIlUB1i1vwke7S8nbiSCPuasRD+JvodFv45UAYONXtbeBEw//shEq5
x+sKKbcUIw==
-----END CERTIFICATE-----
