Certificate:
    Data:
        Version: 3 (0x2)
        Serial Number: 7 (0x7)
        Signature Algorithm: sha1WithRSAEncryption
        Issuer: C=NO, ST=Oslo, O=World Wide Web Consortium, OU=w3c-widgets-digsig-testsuite second level certificate, CN=http://www.w3.org//emailAddress=stuartk@opera.com
        Validity
            Not Before: Jun  7 07:16:23 2011 GMT
            Not After : Jun  2 07:16:23 2031 GMT
        Subject: C=NO, ST=Oslo, O=World Wide Web Consortium, OU=w3c-widgets-digsig-testsuite revoked sig and enc cert, CN=http://www.w3.org//emailAddress=stuartk@opera.com
        Subject Public Key Info:
            Public Key Algorithm: rsaEncryption
            RSA Public Key: (2048 bit)
                Modulus (2048 bit):
                    00:b9:73:8b:74:35:c3:e4:d1:20:ae:8c:97:c0:20:
                    1c:1e:c5:f1:9d:1f:d9:d3:b9:0a:c9:86:42:2f:aa:
                    ff:0a:6b:9f:89:c8:6e:84:16:53:8e:1d:f0:d8:5b:
                    54:2a:91:5f:96:0e:de:a9:19:c9:6a:a4:a0:dd:b7:
                    43:8c:2b:26:78:f5:72:1f:53:a0:88:30:6d:e6:3c:
                    72:88:ae:df:33:b0:72:26:02:06:4e:77:b2:ab:ed:
                    7f:23:97:89:5e:d5:9d:16:c2:74:c1:c5:a0:7c:db:
                    31:a7:3c:1b:7e:1b:aa:88:e0:c5:7e:b6:af:f9:4b:
                    8f:b1:43:81:35:89:d7:8a:e4:80:be:c9:ca:81:bc:
                    91:a5:80:dd:b5:68:67:f4:10:0c:d8:b2:f9:e2:60:
                    b7:3e:ad:4b:ff:3a:9a:26:c6:e1:a9:9d:26:5f:6c:
                    25:72:5e:56:9d:2f:39:60:e8:77:21:8d:1d:85:9b:
                    fc:e9:aa:2b:27:b2:e7:77:8b:85:66:41:e9:50:c6:
                    1d:e8:62:01:4a:0f:b9:5e:94:e9:f6:e9:2a:77:46:
                    ec:cc:9b:7b:8d:f5:bd:95:3e:4c:20:3d:ff:8e:b9:
                    09:f0:86:62:2e:68:c9:5f:86:05:26:9c:75:27:16:
                    97:0a:5d:49:f9:72:36:b7:43:a5:50:e1:0c:22:52:
                    17:c3
                Exponent: 65537 (0x10001)
        X509v3 extensions:
            X509v3 Basic Constraints: 
                CA:FALSE
            Netscape Cert Type: 
                SSL Client, S/MIME, Object Signing
            X509v3 Key Usage: 
                Digital Signature, Non Repudiation, Key Encipherment
            X509v3 Extended Key Usage: 
                TLS Web Server Authentication, TLS Web Client Authentication, Code Signing, E-mail Protection
            Netscape Comment: 
                w3c-widgets-digsig-testsuite revoked sig and enc cert
            X509v3 Subject Key Identifier: 
                83:CB:AE:ED:F0:1A:A2:6E:36:04:6C:D3:08:CF:D3:9F:53:30:74:E5
            X509v3 Authority Key Identifier: 
                keyid:0D:D0:6B:B4:C6:0B:9C:F7:F7:CD:A6:99:6E:E8:B4:92:8A:BF:CC:76
                DirName:/C=NO/ST=Oslo/L=Oslo/O=World Wide Web Consortium/OU=w3c-widgets-digsig-testsuite root certificate/CN=http://www.w3.org//emailAddress=stuartk@opera.com
                serial:01

            Authority Information Access: 
                OCSP - URI:http://ocsp.t.oslo.osa:6277/

    Signature Algorithm: sha1WithRSAEncryption
        64:af:59:13:ca:9c:c0:49:08:71:b7:81:06:ed:7b:e1:f9:6e:
        57:79:00:50:88:1c:6c:7c:3f:88:8e:32:ba:0d:e3:17:81:3c:
        a5:32:b0:db:31:65:79:91:34:34:79:04:32:8b:64:46:71:c4:
        1b:f1:bb:6e:24:28:a0:b8:65:a5:69:d8:c5:90:10:97:7d:bc:
        e4:07:3d:3f:3d:45:af:8f:e7:17:46:bf:82:1f:08:3b:98:a2:
        f8:bf:e4:8a:12:70:c2:e9:10:42:fd:f9:c3:92:a8:6a:99:20:
        2a:fd:41:66:94:23:51:f7:30:11:e8:c3:6c:4b:3e:13:9b:d5:
        51:ed:bd:4d:a7:32:88:4d:51:f6:38:d5:cd:b9:eb:5f:79:47:
        4c:0d:ef:87:b9:b1:11:d9:ee:88:50:2b:de:ed:b5:34:2b:23:
        11:e0:18:52:7a:1b:c0:84:c9:ba:76:9a:9d:89:a7:9d:55:21:
        cd:42:b1:dd:11:da:20:49:45:e7:f2:9e:3b:52:47:e1:e2:79:
        3b:28:e2:3e:c2:ab:d2:08:13:84:dd:23:58:e7:9c:dc:a7:f0:
        d2:0a:9f:44:40:e8:c4:03:c2:67:92:22:82:2e:99:53:f3:91:
        18:dc:7d:49:e7:f5:63:84:aa:44:cd:2c:62:ba:0c:9d:cd:5f:
        1c:5a:ca:12
-----BEGIN CERTIFICATE-----
MIIF9DCCBNygAwIBAgIBBzANBgkqhkiG9w0BAQUFADCBvzELMAkGA1UEBhMCTk8x
DTALBgNVBAgTBE9zbG8xIjAgBgNVBAoTGVdvcmxkIFdpZGUgV2ViIENvbnNvcnRp
dW0xPjA8BgNVBAsTNXczYy13aWRnZXRzLWRpZ3NpZy10ZXN0c3VpdGUgc2Vjb25k
IGxldmVsIGNlcnRpZmljYXRlMRswGQYDVQQDExJodHRwOi8vd3d3LnczLm9yZy8x
IDAeBgkqhkiG9w0BCQEWEXN0dWFydGtAb3BlcmEuY29tMB4XDTExMDYwNzA3MTYy
M1oXDTMxMDYwMjA3MTYyM1owgb8xCzAJBgNVBAYTAk5PMQ0wCwYDVQQIEwRPc2xv
MSIwIAYDVQQKExlXb3JsZCBXaWRlIFdlYiBDb25zb3J0aXVtMT4wPAYDVQQLEzV3
M2Mtd2lkZ2V0cy1kaWdzaWctdGVzdHN1aXRlIHJldm9rZWQgc2lnIGFuZCBlbmMg
Y2VydDEbMBkGA1UEAxMSaHR0cDovL3d3dy53My5vcmcvMSAwHgYJKoZIhvcNAQkB
FhFzdHVhcnRrQG9wZXJhLmNvbTCCASIwDQYJKoZIhvcNAQEBBQADggEPADCCAQoC
ggEBALlzi3Q1w+TRIK6Ml8AgHB7F8Z0f2dO5CsmGQi+q/wprn4nIboQWU44d8Nhb
VCqRX5YO3qkZyWqkoN23Q4wrJnj1ch9ToIgwbeY8coiu3zOwciYCBk53sqvtfyOX
iV7VnRbCdMHFoHzbMac8G34bqojgxX62r/lLj7FDgTWJ14rkgL7JyoG8kaWA3bVo
Z/QQDNiy+eJgtz6tS/86mibG4amdJl9sJXJeVp0vOWDodyGNHYWb/OmqKyey53eL
hWZB6VDGHehiAUoPuV6U6fbpKndG7Mybe431vZU+TCA9/465CfCGYi5oyV+GBSac
dScWlwpdSflyNrdDpVDhDCJSF8MCAwEAAaOCAfcwggHzMAkGA1UdEwQCMAAwEQYJ
YIZIAYb4QgEBBAQDAgSwMAsGA1UdDwQEAwIF4DAxBgNVHSUEKjAoBggrBgEFBQcD
AQYIKwYBBQUHAwIGCCsGAQUFBwMDBggrBgEFBQcDBDBEBglghkgBhvhCAQ0ENxY1
dzNjLXdpZGdldHMtZGlnc2lnLXRlc3RzdWl0ZSByZXZva2VkIHNpZyBhbmQgZW5j
IGNlcnQwHQYDVR0OBBYEFIPLru3wGqJuNgRs0wjP059TMHTlMIHzBgNVHSMEgesw
geiAFA3Qa7TGC5z3982mmW7otJKKv8x2oYHMpIHJMIHGMQswCQYDVQQGEwJOTzEN
MAsGA1UECBMET3NsbzENMAsGA1UEBxMET3NsbzEiMCAGA1UEChMZV29ybGQgV2lk
ZSBXZWIgQ29uc29ydGl1bTE2MDQGA1UECxMtdzNjLXdpZGdldHMtZGlnc2lnLXRl
c3RzdWl0ZSByb290IGNlcnRpZmljYXRlMRswGQYDVQQDExJodHRwOi8vd3d3Lncz
Lm9yZy8xIDAeBgkqhkiG9w0BCQEWEXN0dWFydGtAb3BlcmEuY29tggEBMDgGCCsG
AQUFBwEBBCwwKjAoBggrBgEFBQcwAYYcaHR0cDovL29jc3AudC5vc2xvLm9zYTo2
Mjc3LzANBgkqhkiG9w0BAQUFAAOCAQEAZK9ZE8qcwEkIcbeBBu174fluV3kAUIgc
bHw/iI4yug3jF4E8pTKw2zFleZE0NHkEMotkRnHEG/G7biQooLhlpWnYxZAQl328
5Ac9Pz1Fr4/nF0a/gh8IO5ii+L/kihJwwukQQv35w5KoapkgKv1BZpQjUfcwEejD
bEs+E5vVUe29TacyiE1R9jjVzbnrX3lHTA3vh7mxEdnuiFAr3u21NCsjEeAYUnob
wITJunaanYmnnVUhzUKx3RHaIElF5/KeO1JH4eJ5OyjiPsKr0ggThN0jWOec3Kfw
0gqfREDoxAPCZ5Iigi6ZU/ORGNx9Sef1Y4SqRM0sYroMnc1fHFrKEg==
-----END CERTIFICATE-----
