Certificate:
    Data:
        Version: 3 (0x2)
        Serial Number: 8 (0x8)
        Signature Algorithm: sha1WithRSAEncryption
        Issuer: C=NO, ST=Oslo, O=World Wide Web Consortium, OU=w3c-widgets-digsig-testsuite second level certificate, CN=http://www.w3.org//emailAddress=stuartk@opera.com
        Validity
            Not Before: Jun  7 07:16:24 2011 GMT
            Not After : Jun  2 07:16:24 2031 GMT
        Subject: C=NO, ST=Oslo, O=World Wide Web Consortium, OU=w3c-widgets-digsig-testsuite unknown sig and enc cert, CN=http://www.w3.org//emailAddress=stuartk@opera.com
        Subject Public Key Info:
            Public Key Algorithm: rsaEncryption
            RSA Public Key: (2048 bit)
                Modulus (2048 bit):
                    00:db:e2:72:46:01:2f:4f:35:93:bc:34:07:04:e2:
                    2c:b3:c3:86:43:25:00:69:0a:d9:2f:0c:02:0f:7e:
                    e2:07:09:b9:03:56:58:96:a3:8d:25:48:25:0a:7c:
                    47:fb:11:a6:28:2b:e5:de:5a:22:ac:15:2d:e8:ae:
                    e2:b8:dc:da:3a:2c:0f:4f:04:1f:2c:d2:4f:9e:c2:
                    13:05:96:f8:e6:5b:b5:7f:d1:a2:14:da:0c:4c:0c:
                    65:d6:63:48:65:a1:9b:27:65:b3:82:29:ae:99:20:
                    05:a1:2c:71:f3:dd:a0:aa:99:51:94:5c:09:ff:51:
                    b1:12:6a:e4:eb:81:60:b3:76:f2:4d:5a:38:73:94:
                    39:f2:72:dd:58:00:c4:68:04:32:5e:b6:41:77:d2:
                    bf:fd:35:b9:93:13:3d:e9:c0:e7:c7:3a:7b:e1:33:
                    d8:1c:8e:25:fd:31:55:87:88:94:a4:b7:a8:8d:f1:
                    80:96:e0:63:cb:91:77:1a:0c:e3:e9:f9:75:e0:79:
                    1a:a8:a1:e1:fe:f6:e6:f6:d3:a2:58:bb:85:a0:70:
                    ea:09:89:c8:2f:c3:13:d1:f8:66:26:18:0f:60:03:
                    04:80:37:be:c0:da:f3:81:3a:5e:e0:eb:d1:65:4e:
                    96:e5:cf:c0:ea:98:87:47:04:ec:84:68:4b:5e:72:
                    58:93
                Exponent: 65537 (0x10001)
        X509v3 extensions:
            X509v3 Basic Constraints: 
                CA:FALSE
            Netscape Cert Type: 
                SSL Client, S/MIME, Object Signing
            X509v3 Key Usage: 
                Digital Signature, Non Repudiation, Key Encipherment
            X509v3 Extended Key Usage: 
                TLS Web Server Authentication, TLS Web Client Authentication, Code Signing, E-mail Protection
            Netscape Comment: 
                w3c-widgets-digsig-testsuite unknown sig and enc cert
            X509v3 Subject Key Identifier: 
                EA:C1:81:0C:E9:E5:62:8D:2E:74:BE:26:3F:51:A7:CB:1F:CC:92:73
            X509v3 Authority Key Identifier: 
                keyid:0D:D0:6B:B4:C6:0B:9C:F7:F7:CD:A6:99:6E:E8:B4:92:8A:BF:CC:76
                DirName:/C=NO/ST=Oslo/L=Oslo/O=World Wide Web Consortium/OU=w3c-widgets-digsig-testsuite root certificate/CN=http://www.w3.org//emailAddress=stuartk@opera.com
                serial:01

            Authority Information Access: 
                OCSP - URI:http://ocsp.t.oslo.osa:6277/

    Signature Algorithm: sha1WithRSAEncryption
        83:38:d7:3d:31:a3:5b:dd:13:7c:30:d3:fc:dd:72:07:d9:6f:
        f9:05:d6:71:da:51:16:e1:cc:dc:1d:f0:8c:eb:33:ba:e0:82:
        4f:31:c1:70:f1:03:88:b6:4b:db:28:6d:58:68:9e:35:13:e4:
        e4:b1:03:8f:f9:e0:4a:c7:71:bf:46:5c:3a:15:ac:53:4d:e5:
        e1:36:5e:fe:ee:8a:22:39:66:6b:f5:37:3f:00:31:13:d0:b6:
        ee:5d:00:37:0b:2b:b9:20:9c:1f:eb:45:d1:92:1e:0a:80:9a:
        e1:46:2d:ed:b5:d9:52:40:f2:d8:af:6b:cd:5e:78:75:38:8f:
        75:25:8a:1e:c6:67:82:06:64:56:ba:d6:e4:43:2e:81:c0:de:
        73:c0:8d:06:6b:97:64:1e:3e:89:c0:9b:d9:9f:ef:db:ef:ac:
        17:1f:91:90:6b:b3:ef:ac:cb:07:89:19:26:26:1b:e8:f1:3d:
        bc:8c:b9:fc:4c:32:87:4d:68:ed:23:36:3e:30:94:3a:ba:1c:
        fc:e8:e0:d6:f1:64:58:fe:e5:b0:a5:41:be:c5:57:26:7d:a6:
        91:16:ba:3f:83:41:64:71:6a:f4:f1:2d:8c:58:9c:5a:3c:90:
        bd:29:12:1e:bd:30:34:db:c1:6e:ec:29:4e:a0:7c:d6:06:87:
        a2:be:62:cf
-----BEGIN CERTIFICATE-----
MIIF9DCCBNygAwIBAgIBCDANBgkqhkiG9w0BAQUFADCBvzELMAkGA1UEBhMCTk8x
DTALBgNVBAgTBE9zbG8xIjAgBgNVBAoTGVdvcmxkIFdpZGUgV2ViIENvbnNvcnRp
dW0xPjA8BgNVBAsTNXczYy13aWRnZXRzLWRpZ3NpZy10ZXN0c3VpdGUgc2Vjb25k
IGxldmVsIGNlcnRpZmljYXRlMRswGQYDVQQDExJodHRwOi8vd3d3LnczLm9yZy8x
IDAeBgkqhkiG9w0BCQEWEXN0dWFydGtAb3BlcmEuY29tMB4XDTExMDYwNzA3MTYy
NFoXDTMxMDYwMjA3MTYyNFowgb8xCzAJBgNVBAYTAk5PMQ0wCwYDVQQIEwRPc2xv
MSIwIAYDVQQKExlXb3JsZCBXaWRlIFdlYiBDb25zb3J0aXVtMT4wPAYDVQQLEzV3
M2Mtd2lkZ2V0cy1kaWdzaWctdGVzdHN1aXRlIHVua25vd24gc2lnIGFuZCBlbmMg
Y2VydDEbMBkGA1UEAxMSaHR0cDovL3d3dy53My5vcmcvMSAwHgYJKoZIhvcNAQkB
FhFzdHVhcnRrQG9wZXJhLmNvbTCCASIwDQYJKoZIhvcNAQEBBQADggEPADCCAQoC
ggEBANvickYBL081k7w0BwTiLLPDhkMlAGkK2S8MAg9+4gcJuQNWWJajjSVIJQp8
R/sRpigr5d5aIqwVLeiu4rjc2josD08EHyzST57CEwWW+OZbtX/RohTaDEwMZdZj
SGWhmydls4IprpkgBaEscfPdoKqZUZRcCf9RsRJq5OuBYLN28k1aOHOUOfJy3VgA
xGgEMl62QXfSv/01uZMTPenA58c6e+Ez2ByOJf0xVYeIlKS3qI3xgJbgY8uRdxoM
4+n5deB5Gqih4f725vbToli7haBw6gmJyC/DE9H4ZiYYD2ADBIA3vsDa84E6XuDr
0WVOluXPwOqYh0cE7IRoS15yWJMCAwEAAaOCAfcwggHzMAkGA1UdEwQCMAAwEQYJ
YIZIAYb4QgEBBAQDAgSwMAsGA1UdDwQEAwIF4DAxBgNVHSUEKjAoBggrBgEFBQcD
AQYIKwYBBQUHAwIGCCsGAQUFBwMDBggrBgEFBQcDBDBEBglghkgBhvhCAQ0ENxY1
dzNjLXdpZGdldHMtZGlnc2lnLXRlc3RzdWl0ZSB1bmtub3duIHNpZyBhbmQgZW5j
IGNlcnQwHQYDVR0OBBYEFOrBgQzp5WKNLnS+Jj9Rp8sfzJJzMIHzBgNVHSMEgesw
geiAFA3Qa7TGC5z3982mmW7otJKKv8x2oYHMpIHJMIHGMQswCQYDVQQGEwJOTzEN
MAsGA1UECBMET3NsbzENMAsGA1UEBxMET3NsbzEiMCAGA1UEChMZV29ybGQgV2lk
ZSBXZWIgQ29uc29ydGl1bTE2MDQGA1UECxMtdzNjLXdpZGdldHMtZGlnc2lnLXRl
c3RzdWl0ZSByb290IGNlcnRpZmljYXRlMRswGQYDVQQDExJodHRwOi8vd3d3Lncz
Lm9yZy8xIDAeBgkqhkiG9w0BCQEWEXN0dWFydGtAb3BlcmEuY29tggEBMDgGCCsG
AQUFBwEBBCwwKjAoBggrBgEFBQcwAYYcaHR0cDovL29jc3AudC5vc2xvLm9zYTo2
Mjc3LzANBgkqhkiG9w0BAQUFAAOCAQEAgzjXPTGjW90TfDDT/N1yB9lv+QXWcdpR
FuHM3B3wjOszuuCCTzHBcPEDiLZL2yhtWGieNRPk5LEDj/ngSsdxv0ZcOhWsU03l
4TZe/u6KIjlma/U3PwAxE9C27l0ANwsruSCcH+tF0ZIeCoCa4UYt7bXZUkDy2K9r
zV54dTiPdSWKHsZnggZkVrrW5EMugcDec8CNBmuXZB4+icCb2Z/v2++sFx+RkGuz
76zLB4kZJiYb6PE9vIy5/Ewyh01o7SM2PjCUOroc/Ojg1vFkWP7lsKVBvsVXJn2m
kRa6P4NBZHFq9PEtjFicWjyQvSkSHr0wNNvBbuwpTqB81gaHor5izw==
-----END CERTIFICATE-----
