Certificate:
    Data:
        Version: 3 (0x2)
        Serial Number: 4 (0x4)
        Signature Algorithm: sha1WithRSAEncryption
        Issuer: C=NO, ST=Oslo, O=World Wide Web Consortium, OU=w3c-widgets-digsig-testsuite second level certificate, CN=http://www.w3.org//emailAddress=stuartk@opera.com
        Validity
            Not Before: Sep 24 08:46:17 2010 GMT
            Not After : Sep 19 08:46:17 2030 GMT
        Subject: C=NO, ST=Oslo, O=World Wide Web Consortium, OU=w3c-widgets-digsig-testsuite too short certificate, CN=http://www.w3.org//emailAddress=stuartk@opera.com
        Subject Public Key Info:
            Public Key Algorithm: rsaEncryption
            RSA Public Key: (512 bit)
                Modulus (512 bit):
                    00:a7:a6:7e:5a:9d:0c:48:d4:0c:64:50:32:80:98:
                    1b:9d:b0:6a:96:e3:07:f3:ad:db:dd:0e:db:23:ff:
                    d2:61:74:7b:2b:13:a3:4e:ef:d9:ab:20:a2:5b:df:
                    18:b1:f2:ad:43:40:f9:75:19:dc:7f:7c:2b:f1:03:
                    82:12:e5:30:3d
                Exponent: 65537 (0x10001)
        X509v3 extensions:
            X509v3 Basic Constraints: 
                CA:FALSE
            Netscape Cert Type: 
                SSL Client, S/MIME, Object Signing
            X509v3 Key Usage: 
                Digital Signature, Non Repudiation, Key Encipherment
            Netscape Comment: 
                w3c-widgets-digsig-testsuite too short certificate
            X509v3 Subject Key Identifier: 
                D4:02:B7:FE:DF:20:0E:22:67:97:74:7D:0B:1A:CB:33:33:AA:29:F9
            X509v3 Authority Key Identifier: 
                keyid:0D:D0:6B:B4:C6:0B:9C:F7:F7:CD:A6:99:6E:E8:B4:92:8A:BF:CC:76
                DirName:/C=NO/ST=Oslo/L=Oslo/O=World Wide Web Consortium/OU=w3c-widgets-digsig-testsuite root certificate/CN=http://www.w3.org//emailAddress=stuartk@opera.com
                serial:01

    Signature Algorithm: sha1WithRSAEncryption
        02:85:06:71:7d:9c:ca:ac:c8:fe:ab:48:49:de:96:1a:0b:05:
        1b:21:3e:0d:e5:cb:88:08:54:16:59:e6:08:b7:24:2c:93:98:
        f0:ce:fb:fb:9f:a5:6a:20:1f:7f:30:ec:5e:a4:1a:f4:51:cf:
        92:a4:5c:1b:ed:70:fd:63:c9:ce:72:78:c5:f8:95:2b:67:08:
        fc:cc:99:03:30:13:d4:52:34:40:d7:74:cd:d4:e9:76:fa:7f:
        e8:9e:af:a4:7c:e1:f5:c8:28:43:89:37:93:b3:84:01:55:79:
        c0:09:62:76:0b:c1:af:05:b2:a4:bf:7f:b9:c1:49:81:5b:14:
        72:34:93:d9:83:af:35:2b:02:64:e4:53:c1:9f:14:4e:11:71:
        81:43:af:58:8f:e3:f1:c6:09:cd:38:46:9f:d7:d0:cb:3e:96:
        71:03:32:2f:89:28:ff:3c:2c:ca:58:9f:a2:ea:a5:a0:ae:39:
        f9:a4:8a:54:6b:f9:ff:09:a9:90:99:c1:c8:36:e2:da:44:1c:
        83:4e:6a:64:aa:09:04:e1:16:8b:c7:0a:9c:f4:14:a6:3b:fd:
        ca:33:de:2f:74:19:85:f6:08:d9:1b:29:b5:76:ef:ab:fa:ba:
        88:e7:8a:65:38:e0:3f:1f:24:2a:9b:f8:6e:00:b0:af:69:8b:
        5f:74:e0:7d
-----BEGIN CERTIFICATE-----
MIIEuTCCA6GgAwIBAgIBBDANBgkqhkiG9w0BAQUFADCBvzELMAkGA1UEBhMCTk8x
DTALBgNVBAgTBE9zbG8xIjAgBgNVBAoTGVdvcmxkIFdpZGUgV2ViIENvbnNvcnRp
dW0xPjA8BgNVBAsTNXczYy13aWRnZXRzLWRpZ3NpZy10ZXN0c3VpdGUgc2Vjb25k
IGxldmVsIGNlcnRpZmljYXRlMRswGQYDVQQDExJodHRwOi8vd3d3LnczLm9yZy8x
IDAeBgkqhkiG9w0BCQEWEXN0dWFydGtAb3BlcmEuY29tMB4XDTEwMDkyNDA4NDYx
N1oXDTMwMDkxOTA4NDYxN1owgbwxCzAJBgNVBAYTAk5PMQ0wCwYDVQQIEwRPc2xv
MSIwIAYDVQQKExlXb3JsZCBXaWRlIFdlYiBDb25zb3J0aXVtMTswOQYDVQQLEzJ3
M2Mtd2lkZ2V0cy1kaWdzaWctdGVzdHN1aXRlIHRvbyBzaG9ydCBjZXJ0aWZpY2F0
ZTEbMBkGA1UEAxMSaHR0cDovL3d3dy53My5vcmcvMSAwHgYJKoZIhvcNAQkBFhFz
dHVhcnRrQG9wZXJhLmNvbTBcMA0GCSqGSIb3DQEBAQUAA0sAMEgCQQCnpn5anQxI
1AxkUDKAmBudsGqW4wfzrdvdDtsj/9JhdHsrE6NO79mrIKJb3xix8q1DQPl1Gdx/
fCvxA4IS5TA9AgMBAAGjggGHMIIBgzAJBgNVHRMEAjAAMBEGCWCGSAGG+EIBAQQE
AwIEsDALBgNVHQ8EBAMCBeAwQQYJYIZIAYb4QgENBDQWMnczYy13aWRnZXRzLWRp
Z3NpZy10ZXN0c3VpdGUgdG9vIHNob3J0IGNlcnRpZmljYXRlMB0GA1UdDgQWBBTU
Arf+3yAOImeXdH0LGsszM6op+TCB8wYDVR0jBIHrMIHogBQN0Gu0xguc9/fNpplu
6LSSir/MdqGBzKSByTCBxjELMAkGA1UEBhMCTk8xDTALBgNVBAgTBE9zbG8xDTAL
BgNVBAcTBE9zbG8xIjAgBgNVBAoTGVdvcmxkIFdpZGUgV2ViIENvbnNvcnRpdW0x
NjA0BgNVBAsTLXczYy13aWRnZXRzLWRpZ3NpZy10ZXN0c3VpdGUgcm9vdCBjZXJ0
aWZpY2F0ZTEbMBkGA1UEAxMSaHR0cDovL3d3dy53My5vcmcvMSAwHgYJKoZIhvcN
AQkBFhFzdHVhcnRrQG9wZXJhLmNvbYIBATANBgkqhkiG9w0BAQUFAAOCAQEAAoUG
cX2cyqzI/qtISd6WGgsFGyE+DeXLiAhUFlnmCLckLJOY8M77+5+laiAffzDsXqQa
9FHPkqRcG+1w/WPJznJ4xfiVK2cI/MyZAzAT1FI0QNd0zdTpdvp/6J6vpHzh9cgo
Q4k3k7OEAVV5wAlidgvBrwWypL9/ucFJgVsUcjST2YOvNSsCZORTwZ8UThFxgUOv
WI/j8cYJzThGn9fQyz6WcQMyL4ko/zwsylifouqloK45+aSKVGv5/wmpkJnByDbi
2kQcg05qZKoJBOEWi8cKnPQUpjv9yjPeL3QZhfYI2RsptXbvq/q6iOeKZTjgPx8k
Kpv4bgCwr2mLX3TgfQ==
-----END CERTIFICATE-----
