Certificate:
    Data:
        Version: 3 (0x2)
        Serial Number: 7 (0x7)
        Signature Algorithm: sha1WithRSAEncryption
        Issuer: C=NO, ST=Oslo, O=World Wide Web Consortium, OU=w3c-widgets-digsig-testsuite second level certificate, CN=http://www.w3.org//emailAddress=stuartk@opera.com
        Validity
            Not Before: Dec  1 09:50:00 2010 GMT
            Not After : Nov 26 09:50:00 2030 GMT
        Subject: C=NO, ST=Oslo, O=World Wide Web Consortium, OU=w3c-widgets-digsig-testsuite revoked sig and enc cert, CN=http://www.w3.org//emailAddress=stuartk@opera.com
        Subject Public Key Info:
            Public Key Algorithm: rsaEncryption
            RSA Public Key: (2048 bit)
                Modulus (2048 bit):
                    00:d3:98:ed:ed:ba:ef:56:b8:13:0d:7c:2b:f2:28:
                    52:8d:31:92:b4:30:00:bd:cb:b9:6c:69:b5:67:f3:
                    92:86:20:d8:c0:93:0c:f7:39:ac:ec:bf:df:38:d2:
                    9a:7a:13:7e:a2:b4:dc:3d:d8:95:ac:44:f5:38:a8:
                    8b:31:6b:cb:ed:ed:00:51:98:a1:29:7c:d8:d1:65:
                    a4:06:dd:9e:47:cb:9c:68:97:8e:8d:a5:0f:90:d9:
                    7f:72:b1:76:0f:aa:3c:10:b3:aa:20:0d:4f:b7:a1:
                    44:c7:e9:b6:6f:57:97:24:42:2c:d3:51:e8:e9:a5:
                    ae:d3:2e:4a:73:51:91:f8:8b:f3:da:85:57:d9:f0:
                    31:f0:da:d4:31:a8:c0:ec:d2:35:d4:56:46:37:c0:
                    bf:bc:12:1d:c5:13:60:4c:9e:1a:dc:d7:b9:12:d1:
                    73:17:c2:95:e3:ae:5f:25:2d:92:18:fe:9d:dc:80:
                    ec:59:cd:49:e1:e9:46:55:8a:80:ec:c9:36:9c:93:
                    72:85:f7:af:63:c9:4f:62:54:b0:b3:3d:e2:2e:76:
                    5a:b0:38:3b:1d:5b:7b:31:6b:4e:ab:08:02:19:0c:
                    63:3a:89:f3:8a:57:a4:98:b8:08:85:b4:99:4a:a6:
                    c4:0d:99:00:17:d7:60:98:63:88:16:c5:f3:96:6a:
                    65:a1
                Exponent: 65537 (0x10001)
        X509v3 extensions:
            X509v3 Basic Constraints: 
                CA:FALSE
            Netscape Cert Type: 
                SSL Client, S/MIME, Object Signing
            X509v3 Key Usage: 
                Digital Signature, Non Repudiation, Key Encipherment
            Netscape Comment: 
                w3c-widgets-digsig-testsuite revoked sig and enc cert
            X509v3 Subject Key Identifier: 
                57:C7:59:FA:D4:D0:46:04:BD:4A:3C:95:A3:AB:F2:53:0C:35:D2:15
            X509v3 Authority Key Identifier: 
                keyid:0D:D0:6B:B4:C6:0B:9C:F7:F7:CD:A6:99:6E:E8:B4:92:8A:BF:CC:76
                DirName:/C=NO/ST=Oslo/L=Oslo/O=World Wide Web Consortium/OU=w3c-widgets-digsig-testsuite root certificate/CN=http://www.w3.org//emailAddress=stuartk@opera.com
                serial:01

            Authority Information Access: 
                OCSP - URI:http://jajo.wroclaw.osa:6277/

    Signature Algorithm: sha1WithRSAEncryption
        99:3c:a5:48:65:ba:24:84:ca:43:cb:5d:50:df:29:cc:59:0b:
        58:30:6a:e0:70:ab:94:57:28:7e:c4:c2:81:d9:53:60:d7:d5:
        b8:bd:2d:8e:82:4a:c1:be:71:62:8b:ef:71:a9:f1:aa:cd:31:
        46:8d:23:9c:5a:a3:33:5f:38:e4:3a:b9:9a:dd:8e:c4:17:15:
        ee:d5:98:db:cf:cb:75:fe:f2:3b:a9:86:3b:31:d0:dd:7c:f1:
        3d:65:36:17:16:aa:00:8f:c8:9a:ae:20:01:54:82:ab:6b:02:
        60:10:33:95:22:b3:78:0c:bf:12:b5:7d:c8:ae:2a:03:45:1e:
        c1:ad:e1:d1:33:aa:f8:63:87:be:8a:e6:d3:a7:19:12:d6:bd:
        e3:18:85:09:df:4e:d5:ae:c7:58:a5:86:fe:d1:a0:aa:e9:60:
        22:e1:1b:35:34:bc:d3:cc:c2:dc:35:8a:c1:e7:20:cd:cb:e5:
        a7:b7:a2:3b:3c:f7:ef:9a:4f:4d:b4:49:93:1a:ac:f2:2a:a5:
        81:ee:f6:4f:43:cb:08:b5:19:be:a0:4d:22:fe:02:28:4b:b7:
        76:d7:04:4c:89:b0:1c:a1:1d:23:a6:70:88:62:44:00:82:04:
        f5:c3:d0:25:ca:64:7e:a8:4c:fc:29:84:c4:26:ee:fe:d9:a0:
        2d:95:7d:3a
-----BEGIN CERTIFICATE-----
MIIFwjCCBKqgAwIBAgIBBzANBgkqhkiG9w0BAQUFADCBvzELMAkGA1UEBhMCTk8x
DTALBgNVBAgTBE9zbG8xIjAgBgNVBAoTGVdvcmxkIFdpZGUgV2ViIENvbnNvcnRp
dW0xPjA8BgNVBAsTNXczYy13aWRnZXRzLWRpZ3NpZy10ZXN0c3VpdGUgc2Vjb25k
IGxldmVsIGNlcnRpZmljYXRlMRswGQYDVQQDExJodHRwOi8vd3d3LnczLm9yZy8x
IDAeBgkqhkiG9w0BCQEWEXN0dWFydGtAb3BlcmEuY29tMB4XDTEwMTIwMTA5NTAw
MFoXDTMwMTEyNjA5NTAwMFowgb8xCzAJBgNVBAYTAk5PMQ0wCwYDVQQIEwRPc2xv
MSIwIAYDVQQKExlXb3JsZCBXaWRlIFdlYiBDb25zb3J0aXVtMT4wPAYDVQQLEzV3
M2Mtd2lkZ2V0cy1kaWdzaWctdGVzdHN1aXRlIHJldm9rZWQgc2lnIGFuZCBlbmMg
Y2VydDEbMBkGA1UEAxMSaHR0cDovL3d3dy53My5vcmcvMSAwHgYJKoZIhvcNAQkB
FhFzdHVhcnRrQG9wZXJhLmNvbTCCASIwDQYJKoZIhvcNAQEBBQADggEPADCCAQoC
ggEBANOY7e2671a4Ew18K/IoUo0xkrQwAL3LuWxptWfzkoYg2MCTDPc5rOy/3zjS
mnoTfqK03D3YlaxE9TioizFry+3tAFGYoSl82NFlpAbdnkfLnGiXjo2lD5DZf3Kx
dg+qPBCzqiANT7ehRMfptm9XlyRCLNNR6OmlrtMuSnNRkfiL89qFV9nwMfDa1DGo
wOzSNdRWRjfAv7wSHcUTYEyeGtzXuRLRcxfCleOuXyUtkhj+ndyA7FnNSeHpRlWK
gOzJNpyTcoX3r2PJT2JUsLM94i52WrA4Ox1bezFrTqsIAhkMYzqJ84pXpJi4CIW0
mUqmxA2ZABfXYJhjiBbF85ZqZaECAwEAAaOCAcUwggHBMAkGA1UdEwQCMAAwEQYJ
YIZIAYb4QgEBBAQDAgSwMAsGA1UdDwQEAwIF4DBEBglghkgBhvhCAQ0ENxY1dzNj
LXdpZGdldHMtZGlnc2lnLXRlc3RzdWl0ZSByZXZva2VkIHNpZyBhbmQgZW5jIGNl
cnQwHQYDVR0OBBYEFFfHWfrU0EYEvUo8laOr8lMMNdIVMIHzBgNVHSMEgeswgeiA
FA3Qa7TGC5z3982mmW7otJKKv8x2oYHMpIHJMIHGMQswCQYDVQQGEwJOTzENMAsG
A1UECBMET3NsbzENMAsGA1UEBxMET3NsbzEiMCAGA1UEChMZV29ybGQgV2lkZSBX
ZWIgQ29uc29ydGl1bTE2MDQGA1UECxMtdzNjLXdpZGdldHMtZGlnc2lnLXRlc3Rz
dWl0ZSByb290IGNlcnRpZmljYXRlMRswGQYDVQQDExJodHRwOi8vd3d3LnczLm9y
Zy8xIDAeBgkqhkiG9w0BCQEWEXN0dWFydGtAb3BlcmEuY29tggEBMDkGCCsGAQUF
BwEBBC0wKzApBggrBgEFBQcwAYYdaHR0cDovL2pham8ud3JvY2xhdy5vc2E6NjI3
Ny8wDQYJKoZIhvcNAQEFBQADggEBAJk8pUhluiSEykPLXVDfKcxZC1gwauBwq5RX
KH7EwoHZU2DX1bi9LY6CSsG+cWKL73Gp8arNMUaNI5xaozNfOOQ6uZrdjsQXFe7V
mNvPy3X+8juphjsx0N188T1lNhcWqgCPyJquIAFUgqtrAmAQM5Uis3gMvxK1fciu
KgNFHsGt4dEzqvhjh76K5tOnGRLWveMYhQnfTtWux1ilhv7RoKrpYCLhGzU0vNPM
wtw1isHnIM3L5ae3ojs89++aT020SZMarPIqpYHu9k9Dywi1Gb6gTSL+AihLt3bX
BEyJsByhHSOmcIhiRACCBPXD0CXKZH6oTPwphMQm7v7ZoC2VfTo=
-----END CERTIFICATE-----
