Certificate:
    Data:
        Version: 3 (0x2)
        Serial Number: 8 (0x8)
        Signature Algorithm: sha1WithRSAEncryption
        Issuer: C=NO, ST=Oslo, O=World Wide Web Consortium, OU=w3c-widgets-digsig-testsuite second level certificate, CN=http://www.w3.org//emailAddress=stuartk@opera.com
        Validity
            Not Before: Dec  1 09:50:01 2010 GMT
            Not After : Nov 26 09:50:01 2030 GMT
        Subject: C=NO, ST=Oslo, O=World Wide Web Consortium, OU=w3c-widgets-digsig-testsuite unknown sig and enc cert, CN=http://www.w3.org//emailAddress=stuartk@opera.com
        Subject Public Key Info:
            Public Key Algorithm: rsaEncryption
            RSA Public Key: (2048 bit)
                Modulus (2048 bit):
                    00:b4:79:a8:18:61:2b:dd:e4:6c:ee:09:03:41:b6:
                    7d:df:c9:ae:8b:c7:78:34:86:a9:bd:3d:d4:04:17:
                    ce:75:9b:13:e8:18:4f:6f:77:b8:ba:1c:99:8b:c0:
                    b1:49:fb:27:a9:2a:3f:a8:85:13:d8:c6:13:e1:a9:
                    d7:36:5a:ce:53:0f:26:cf:a7:f6:3f:9e:ed:82:42:
                    7d:0d:f4:59:73:7a:26:03:3b:c1:3b:9f:c6:e7:7f:
                    f4:f1:78:88:a1:0a:8a:9f:df:1f:e9:3c:7e:da:b6:
                    9e:83:27:93:4a:53:80:52:89:58:dd:ae:1b:8b:02:
                    07:17:da:3a:c5:d0:81:cd:f3:22:c8:4f:bd:2a:42:
                    36:b7:31:e2:a4:08:a8:54:cc:a7:bf:89:90:cb:e6:
                    fd:c1:81:95:4b:9d:47:1b:ba:cf:d1:a9:f7:53:8e:
                    6d:42:5a:e5:80:f1:c8:69:ed:92:dc:a6:df:d1:b7:
                    0e:b1:42:14:76:ab:bd:32:4d:88:fa:15:61:49:e5:
                    4a:d8:f1:cf:cb:75:a3:e2:3d:f2:49:db:7c:bc:b4:
                    56:57:46:64:80:b4:42:06:97:66:74:bf:0a:cb:a6:
                    87:64:de:b9:31:39:39:16:10:5a:36:9a:89:9a:5e:
                    9e:de:10:c5:d8:b4:ff:33:9f:c7:f7:68:15:09:06:
                    7e:0f
                Exponent: 65537 (0x10001)
        X509v3 extensions:
            X509v3 Basic Constraints: 
                CA:FALSE
            Netscape Cert Type: 
                SSL Client, S/MIME, Object Signing
            X509v3 Key Usage: 
                Digital Signature, Non Repudiation, Key Encipherment
            Netscape Comment: 
                w3c-widgets-digsig-testsuite unknown sig and enc cert
            X509v3 Subject Key Identifier: 
                36:18:D8:D7:0C:C2:DB:EC:CA:4F:27:B1:A4:43:99:EB:40:7F:B0:8E
            X509v3 Authority Key Identifier: 
                keyid:0D:D0:6B:B4:C6:0B:9C:F7:F7:CD:A6:99:6E:E8:B4:92:8A:BF:CC:76
                DirName:/C=NO/ST=Oslo/L=Oslo/O=World Wide Web Consortium/OU=w3c-widgets-digsig-testsuite root certificate/CN=http://www.w3.org//emailAddress=stuartk@opera.com
                serial:01

            Authority Information Access: 
                OCSP - URI:http://jajo.wroclaw.osa:6277/

    Signature Algorithm: sha1WithRSAEncryption
        ad:b3:54:d9:0a:b3:19:f3:b8:97:3e:4a:5c:08:1a:5a:69:a8:
        4e:3f:84:fe:0c:28:5c:37:96:11:07:58:ca:07:01:6a:60:f9:
        23:33:b8:0f:4c:56:4b:3b:fc:8a:1a:f9:a6:75:55:3d:27:d9:
        02:92:8f:1d:23:b0:ee:75:ab:5f:85:ca:8d:e4:a6:bb:65:cc:
        47:d3:7a:31:8b:79:d3:cf:94:22:1a:a1:12:84:ce:b6:d2:dc:
        00:a6:ff:61:90:17:4d:93:ec:f0:13:af:99:9f:f3:af:44:74:
        78:fb:d5:1d:50:d5:6f:d6:2f:6d:9c:ef:eb:4f:61:0e:a5:32:
        3d:c1:a8:2e:42:d3:ad:95:b1:08:07:a4:93:f2:e3:2e:b7:98:
        6b:18:35:ad:b4:08:05:14:85:30:c8:a2:da:5a:93:24:30:93:
        00:08:cd:a1:2e:d1:d2:18:b4:b3:3d:a2:0e:a7:5b:6b:7c:04:
        37:dd:b3:f8:90:79:aa:55:62:60:40:d8:53:aa:87:f7:51:dd:
        76:e2:ae:e2:d4:da:3c:12:26:4c:90:75:79:14:51:70:40:a3:
        64:2a:1b:4a:fa:2a:4a:70:fb:fd:21:0d:6a:b5:c4:11:2c:a6:
        39:0f:21:0c:db:1c:96:ea:21:0a:b8:61:20:ca:f6:31:a7:7c:
        e7:10:2d:3f
-----BEGIN CERTIFICATE-----
MIIFwjCCBKqgAwIBAgIBCDANBgkqhkiG9w0BAQUFADCBvzELMAkGA1UEBhMCTk8x
DTALBgNVBAgTBE9zbG8xIjAgBgNVBAoTGVdvcmxkIFdpZGUgV2ViIENvbnNvcnRp
dW0xPjA8BgNVBAsTNXczYy13aWRnZXRzLWRpZ3NpZy10ZXN0c3VpdGUgc2Vjb25k
IGxldmVsIGNlcnRpZmljYXRlMRswGQYDVQQDExJodHRwOi8vd3d3LnczLm9yZy8x
IDAeBgkqhkiG9w0BCQEWEXN0dWFydGtAb3BlcmEuY29tMB4XDTEwMTIwMTA5NTAw
MVoXDTMwMTEyNjA5NTAwMVowgb8xCzAJBgNVBAYTAk5PMQ0wCwYDVQQIEwRPc2xv
MSIwIAYDVQQKExlXb3JsZCBXaWRlIFdlYiBDb25zb3J0aXVtMT4wPAYDVQQLEzV3
M2Mtd2lkZ2V0cy1kaWdzaWctdGVzdHN1aXRlIHVua25vd24gc2lnIGFuZCBlbmMg
Y2VydDEbMBkGA1UEAxMSaHR0cDovL3d3dy53My5vcmcvMSAwHgYJKoZIhvcNAQkB
FhFzdHVhcnRrQG9wZXJhLmNvbTCCASIwDQYJKoZIhvcNAQEBBQADggEPADCCAQoC
ggEBALR5qBhhK93kbO4JA0G2fd/JrovHeDSGqb091AQXznWbE+gYT293uLocmYvA
sUn7J6kqP6iFE9jGE+Gp1zZazlMPJs+n9j+e7YJCfQ30WXN6JgM7wTufxud/9PF4
iKEKip/fH+k8ftq2noMnk0pTgFKJWN2uG4sCBxfaOsXQgc3zIshPvSpCNrcx4qQI
qFTMp7+JkMvm/cGBlUudRxu6z9Gp91OObUJa5YDxyGntktym39G3DrFCFHarvTJN
iPoVYUnlStjxz8t1o+I98knbfLy0VldGZIC0QgaXZnS/Csumh2TeuTE5ORYQWjaa
iZpent4Qxdi0/zOfx/doFQkGfg8CAwEAAaOCAcUwggHBMAkGA1UdEwQCMAAwEQYJ
YIZIAYb4QgEBBAQDAgSwMAsGA1UdDwQEAwIF4DBEBglghkgBhvhCAQ0ENxY1dzNj
LXdpZGdldHMtZGlnc2lnLXRlc3RzdWl0ZSB1bmtub3duIHNpZyBhbmQgZW5jIGNl
cnQwHQYDVR0OBBYEFDYY2NcMwtvsyk8nsaRDmetAf7COMIHzBgNVHSMEgeswgeiA
FA3Qa7TGC5z3982mmW7otJKKv8x2oYHMpIHJMIHGMQswCQYDVQQGEwJOTzENMAsG
A1UECBMET3NsbzENMAsGA1UEBxMET3NsbzEiMCAGA1UEChMZV29ybGQgV2lkZSBX
ZWIgQ29uc29ydGl1bTE2MDQGA1UECxMtdzNjLXdpZGdldHMtZGlnc2lnLXRlc3Rz
dWl0ZSByb290IGNlcnRpZmljYXRlMRswGQYDVQQDExJodHRwOi8vd3d3LnczLm9y
Zy8xIDAeBgkqhkiG9w0BCQEWEXN0dWFydGtAb3BlcmEuY29tggEBMDkGCCsGAQUF
BwEBBC0wKzApBggrBgEFBQcwAYYdaHR0cDovL2pham8ud3JvY2xhdy5vc2E6NjI3
Ny8wDQYJKoZIhvcNAQEFBQADggEBAK2zVNkKsxnzuJc+SlwIGlppqE4/hP4MKFw3
lhEHWMoHAWpg+SMzuA9MVks7/Ioa+aZ1VT0n2QKSjx0jsO51q1+Fyo3kprtlzEfT
ejGLedPPlCIaoRKEzrbS3ACm/2GQF02T7PATr5mf869EdHj71R1Q1W/WL22c7+tP
YQ6lMj3BqC5C062VsQgHpJPy4y63mGsYNa20CAUUhTDIotpakyQwkwAIzaEu0dIY
tLM9og6nW2t8BDfds/iQeapVYmBA2FOqh/dR3XbiruLU2jwSJkyQdXkUUXBAo2Qq
G0r6Kkpw+/0hDWq1xBEspjkPIQzbHJbqIQq4YSDK9jGnfOcQLT8=
-----END CERTIFICATE-----
